
obj_mo/sd8p_mo.elf:     file format elf32-avr

Sections:
Idx Name          Size      VMA       LMA       File off  Algn
  0 .text         000018dc  00000000  00000000  00000094  2**1
                  CONTENTS, ALLOC, LOAD, READONLY, CODE
  1 .data         0000000a  00800060  000018dc  00001970  2**0
                  CONTENTS, ALLOC, LOAD, DATA
  2 .bss          0000015a  0080006a  0080006a  0000197a  2**0
                  ALLOC
  3 .stab         00000aa4  00000000  00000000  0000197c  2**2
                  CONTENTS, READONLY, DEBUGGING
  4 .stabstr      00000125  00000000  00000000  00002420  2**0
                  CONTENTS, READONLY, DEBUGGING
  5 .comment      00000011  00000000  00000000  00002545  2**0
                  CONTENTS, READONLY
  6 .debug_aranges 000000a8  00000000  00000000  00002558  2**3
                  CONTENTS, READONLY, DEBUGGING
  7 .debug_info   000023d5  00000000  00000000  00002600  2**0
                  CONTENTS, READONLY, DEBUGGING
  8 .debug_abbrev 00000ade  00000000  00000000  000049d5  2**0
                  CONTENTS, READONLY, DEBUGGING
  9 .debug_line   00001620  00000000  00000000  000054b3  2**0
                  CONTENTS, READONLY, DEBUGGING
 10 .debug_frame  0000033c  00000000  00000000  00006ad4  2**2
                  CONTENTS, READONLY, DEBUGGING
 11 .debug_str    000005c6  00000000  00000000  00006e10  2**0
                  CONTENTS, READONLY, DEBUGGING
 12 .debug_loc    00001c19  00000000  00000000  000073d6  2**0
                  CONTENTS, READONLY, DEBUGGING
 13 .debug_ranges 00000120  00000000  00000000  00008fef  2**0
                  CONTENTS, READONLY, DEBUGGING

Disassembly of section .text:

00000000 <__vectors>:
       0:	11 c0       	rjmp	.+34     	; 0x24 <__ctors_end>
       2:	2b c0       	rjmp	.+86     	; 0x5a <__bad_interrupt>
       4:	2a c0       	rjmp	.+84     	; 0x5a <__bad_interrupt>
       6:	29 c0       	rjmp	.+82     	; 0x5a <__bad_interrupt>
       8:	28 c0       	rjmp	.+80     	; 0x5a <__bad_interrupt>
       a:	27 c0       	rjmp	.+78     	; 0x5a <__bad_interrupt>
       c:	26 c0       	rjmp	.+76     	; 0x5a <__bad_interrupt>
       e:	25 c0       	rjmp	.+74     	; 0x5a <__bad_interrupt>
      10:	24 c0       	rjmp	.+72     	; 0x5a <__bad_interrupt>
      12:	23 c0       	rjmp	.+70     	; 0x5a <__bad_interrupt>
      14:	c5 c0       	rjmp	.+394    	; 0x1a0 <__vector_10>
      16:	21 c0       	rjmp	.+66     	; 0x5a <__bad_interrupt>
      18:	b8 c1       	rjmp	.+880    	; 0x38a <__vector_12>
      1a:	1f c0       	rjmp	.+62     	; 0x5a <__bad_interrupt>
      1c:	1e c0       	rjmp	.+60     	; 0x5a <__bad_interrupt>

0000001e <__trampolines_end>:
      1e:	25 73       	andi	r18, 0x35	; 53
      20:	2f 25       	eor	r18, r15
      22:	73 00       	.word	0x0073	; ????

00000024 <__ctors_end>:
      24:	11 24       	eor	r1, r1
      26:	1f be       	out	0x3f, r1	; 63
      28:	cf e5       	ldi	r28, 0x5F	; 95
      2a:	d2 e0       	ldi	r29, 0x02	; 2
      2c:	de bf       	out	0x3e, r29	; 62
      2e:	cd bf       	out	0x3d, r28	; 61

00000030 <__do_copy_data>:
      30:	10 e0       	ldi	r17, 0x00	; 0
      32:	a0 e6       	ldi	r26, 0x60	; 96
      34:	b0 e0       	ldi	r27, 0x00	; 0
      36:	ec ed       	ldi	r30, 0xDC	; 220
      38:	f8 e1       	ldi	r31, 0x18	; 24
      3a:	02 c0       	rjmp	.+4      	; 0x40 <__SREG__+0x1>
      3c:	05 90       	lpm	r0, Z+
      3e:	0d 92       	st	X+, r0
      40:	aa 36       	cpi	r26, 0x6A	; 106
      42:	b1 07       	cpc	r27, r17
      44:	d9 f7       	brne	.-10     	; 0x3c <__do_copy_data+0xc>

00000046 <__do_clear_bss>:
      46:	11 e0       	ldi	r17, 0x01	; 1
      48:	aa e6       	ldi	r26, 0x6A	; 106
      4a:	b0 e0       	ldi	r27, 0x00	; 0
      4c:	01 c0       	rjmp	.+2      	; 0x50 <.do_clear_bss_start>

0000004e <.do_clear_bss_loop>:
      4e:	1d 92       	st	X+, r1

00000050 <.do_clear_bss_start>:
      50:	a4 3c       	cpi	r26, 0xC4	; 196
      52:	b1 07       	cpc	r27, r17
      54:	e1 f7       	brne	.-8      	; 0x4e <.do_clear_bss_loop>
      56:	8a d9       	rcall	.-3308   	; 0xfffff36c <__eeprom_end+0xff7ef36c>
      58:	3f cc       	rjmp	.-1922   	; 0xfffff8d8 <__eeprom_end+0xff7ef8d8>

0000005a <__bad_interrupt>:
      5a:	d2 cf       	rjmp	.-92     	; 0x0 <__vectors>

0000005c <delay_ms>:
      5c:	a8 95       	wdr
      5e:	01 97       	sbiw	r24, 0x01	; 1
      60:	28 f0       	brcs	.+10     	; 0x6c <delay_ms+0x10>
      62:	e0 ea       	ldi	r30, 0xA0	; 160
      64:	ff e0       	ldi	r31, 0x0F	; 15
      66:	31 97       	sbiw	r30, 0x01	; 1
      68:	f1 f7       	brne	.-4      	; 0x66 <delay_ms+0xa>
      6a:	f8 cf       	rjmp	.-16     	; 0x5c <delay_ms>
      6c:	08 95       	ret

0000006e <delay_us>:
      6e:	72 e0       	ldi	r23, 0x02	; 2
      70:	7a 95       	dec	r23
      72:	f1 f7       	brne	.-4      	; 0x70 <delay_us+0x2>
      74:	01 97       	sbiw	r24, 0x01	; 1
      76:	d9 f7       	brne	.-10     	; 0x6e <delay_us>
      78:	a8 95       	wdr
      7a:	08 95       	ret

0000007c <init_spi>:
      7c:	88 e0       	ldi	r24, 0x08	; 8
      7e:	8d b9       	out	0x0d, r24	; 13
      80:	c1 9a       	sbi	0x18, 1	; 24
      82:	c3 9a       	sbi	0x18, 3	; 24
      84:	08 95       	ret

00000086 <select>:
      86:	c3 98       	cbi	0x18, 3	; 24
      88:	08 95       	ret

0000008a <deselect>:
      8a:	c3 9a       	sbi	0x18, 3	; 24
      8c:	08 95       	ret

0000008e <rcv_spi>:
      8e:	84 e0       	ldi	r24, 0x04	; 4
      90:	86 bb       	out	0x16, r24	; 22
      92:	86 bb       	out	0x16, r24	; 22
      94:	86 bb       	out	0x16, r24	; 22
      96:	86 bb       	out	0x16, r24	; 22
      98:	86 bb       	out	0x16, r24	; 22
      9a:	86 bb       	out	0x16, r24	; 22
      9c:	86 bb       	out	0x16, r24	; 22
      9e:	86 bb       	out	0x16, r24	; 22
      a0:	86 bb       	out	0x16, r24	; 22
      a2:	86 bb       	out	0x16, r24	; 22
      a4:	86 bb       	out	0x16, r24	; 22
      a6:	86 bb       	out	0x16, r24	; 22
      a8:	86 bb       	out	0x16, r24	; 22
      aa:	86 bb       	out	0x16, r24	; 22
      ac:	86 bb       	out	0x16, r24	; 22
      ae:	86 bb       	out	0x16, r24	; 22
      b0:	00 00       	nop
      b2:	8f b1       	in	r24, 0x0f	; 15
      b4:	08 95       	ret

000000b6 <xmit_spi>:
      b6:	94 e0       	ldi	r25, 0x04	; 4
      b8:	68 b3       	in	r22, 0x18	; 24
      ba:	78 e0       	ldi	r23, 0x08	; 8
      bc:	87 fb       	bst	r24, 7
      be:	61 f9       	bld	r22, 1
      c0:	68 bb       	out	0x18, r22	; 24
      c2:	88 0f       	add	r24, r24
      c4:	96 bb       	out	0x16, r25	; 22
      c6:	96 bb       	out	0x16, r25	; 22
      c8:	7a 95       	dec	r23
      ca:	c1 f7       	brne	.-16     	; 0xbc <xmit_spi+0x6>
      cc:	c1 9a       	sbi	0x18, 1	; 24
      ce:	08 95       	ret

000000d0 <read_blk_part>:
      d0:	dc 01       	movw	r26, r24
      d2:	fb 01       	movw	r30, r22
      d4:	22 e0       	ldi	r18, 0x02	; 2
      d6:	32 e0       	ldi	r19, 0x02	; 2
      d8:	2e 1b       	sub	r18, r30
      da:	3f 0b       	sbc	r19, r31
      dc:	24 1b       	sub	r18, r20
      de:	35 0b       	sbc	r19, r21
      e0:	84 e0       	ldi	r24, 0x04	; 4
      e2:	31 97       	sbiw	r30, 0x01	; 1
      e4:	88 f0       	brcs	.+34     	; 0x108 <read_blk_part+0x38>
      e6:	86 bb       	out	0x16, r24	; 22
      e8:	86 bb       	out	0x16, r24	; 22
      ea:	86 bb       	out	0x16, r24	; 22
      ec:	86 bb       	out	0x16, r24	; 22
      ee:	86 bb       	out	0x16, r24	; 22
      f0:	86 bb       	out	0x16, r24	; 22
      f2:	86 bb       	out	0x16, r24	; 22
      f4:	86 bb       	out	0x16, r24	; 22
      f6:	86 bb       	out	0x16, r24	; 22
      f8:	86 bb       	out	0x16, r24	; 22
      fa:	86 bb       	out	0x16, r24	; 22
      fc:	86 bb       	out	0x16, r24	; 22
      fe:	86 bb       	out	0x16, r24	; 22
     100:	86 bb       	out	0x16, r24	; 22
     102:	86 bb       	out	0x16, r24	; 22
     104:	86 bb       	out	0x16, r24	; 22
     106:	ed cf       	rjmp	.-38     	; 0xe2 <read_blk_part+0x12>
     108:	10 97       	sbiw	r26, 0x00	; 0
     10a:	31 f0       	breq	.+12     	; 0x118 <fb_wave>

0000010c <fb_mem>:
     10c:	c0 df       	rcall	.-128    	; 0x8e <rcv_spi>
     10e:	8d 93       	st	X+, r24
     110:	41 50       	subi	r20, 0x01	; 1
     112:	50 40       	sbci	r21, 0x00	; 0
     114:	d9 f7       	brne	.-10     	; 0x10c <fb_mem>
     116:	2f c0       	rjmp	.+94     	; 0x176 <fb_exit>

00000118 <fb_wave>:
     118:	8c 99       	sbic	0x11, 4	; 17
     11a:	56 95       	lsr	r21
     11c:	8c 99       	sbic	0x11, 4	; 17
     11e:	47 95       	ror	r20
     120:	89 99       	sbic	0x11, 1	; 17
     122:	56 95       	lsr	r21
     124:	89 99       	sbic	0x11, 1	; 17
     126:	47 95       	ror	r20
     128:	60 91 6e 00 	lds	r22, 0x006E	; 0x80006e <FifoWi>
     12c:	a8 e8       	ldi	r26, 0x88	; 136
     12e:	b0 e0       	ldi	r27, 0x00	; 0
     130:	a6 0f       	add	r26, r22
     132:	b1 1d       	adc	r27, r1
     134:	80 91 98 01 	lds	r24, 0x0198	; 0x800198 <FifoCt>
     138:	8c 3f       	cpi	r24, 0xFC	; 252
     13a:	e0 f7       	brcc	.-8      	; 0x134 <fb_wave+0x1c>
     13c:	8c 99       	sbic	0x11, 4	; 17
     13e:	a7 df       	rcall	.-178    	; 0x8e <rcv_spi>
     140:	a6 df       	rcall	.-180    	; 0x8e <rcv_spi>
     142:	8c 99       	sbic	0x11, 4	; 17
     144:	80 58       	subi	r24, 0x80	; 128
     146:	e8 2f       	mov	r30, r24
     148:	89 9b       	sbis	0x11, 1	; 17
     14a:	07 c0       	rjmp	.+14     	; 0x15a <fb_wave+0x42>
     14c:	8c 99       	sbic	0x11, 4	; 17
     14e:	9f df       	rcall	.-194    	; 0x8e <rcv_spi>
     150:	9e df       	rcall	.-196    	; 0x8e <rcv_spi>
     152:	8c 99       	sbic	0x11, 4	; 17
     154:	80 58       	subi	r24, 0x80	; 128
     156:	e8 0f       	add	r30, r24
     158:	e7 95       	ror	r30
     15a:	ed 93       	st	X+, r30
     15c:	f8 94       	cli
     15e:	80 91 98 01 	lds	r24, 0x0198	; 0x800198 <FifoCt>
     162:	83 95       	inc	r24
     164:	80 93 98 01 	sts	0x0198, r24	; 0x800198 <FifoCt>
     168:	78 94       	sei
     16a:	63 95       	inc	r22
     16c:	41 50       	subi	r20, 0x01	; 1
     16e:	50 40       	sbci	r21, 0x00	; 0
     170:	e9 f6       	brne	.-70     	; 0x12c <fb_wave+0x14>
     172:	60 93 6e 00 	sts	0x006E, r22	; 0x80006e <FifoWi>

00000176 <fb_exit>:
     176:	84 e0       	ldi	r24, 0x04	; 4
     178:	86 bb       	out	0x16, r24	; 22
     17a:	86 bb       	out	0x16, r24	; 22
     17c:	86 bb       	out	0x16, r24	; 22
     17e:	86 bb       	out	0x16, r24	; 22
     180:	86 bb       	out	0x16, r24	; 22
     182:	86 bb       	out	0x16, r24	; 22
     184:	86 bb       	out	0x16, r24	; 22
     186:	86 bb       	out	0x16, r24	; 22
     188:	86 bb       	out	0x16, r24	; 22
     18a:	86 bb       	out	0x16, r24	; 22
     18c:	86 bb       	out	0x16, r24	; 22
     18e:	86 bb       	out	0x16, r24	; 22
     190:	86 bb       	out	0x16, r24	; 22
     192:	86 bb       	out	0x16, r24	; 22
     194:	86 bb       	out	0x16, r24	; 22
     196:	86 bb       	out	0x16, r24	; 22
     198:	21 50       	subi	r18, 0x01	; 1
     19a:	30 40       	sbci	r19, 0x00	; 0
     19c:	69 f7       	brne	.-38     	; 0x178 <fb_exit+0x2>
     19e:	08 95       	ret

000001a0 <__vector_10>:
     1a0:	8f 93       	push	r24
     1a2:	8f b7       	in	r24, 0x3f	; 63
     1a4:	8f 93       	push	r24
     1a6:	ef 93       	push	r30
     1a8:	ff 93       	push	r31
     1aa:	e0 91 6f 00 	lds	r30, 0x006F	; 0x80006f <FifoRi>
     1ae:	ff 27       	eor	r31, r31
     1b0:	e8 57       	subi	r30, 0x78	; 120
     1b2:	ff 4f       	sbci	r31, 0xFF	; 255
     1b4:	80 91 98 01 	lds	r24, 0x0198	; 0x800198 <FifoCt>
     1b8:	81 50       	subi	r24, 0x01	; 1
     1ba:	38 f0       	brcs	.+14     	; 0x1ca <__vector_10+0x2a>
     1bc:	80 93 98 01 	sts	0x0198, r24	; 0x800198 <FifoCt>
     1c0:	81 91       	ld	r24, Z+
     1c2:	8b bd       	out	0x2b, r24	; 43
     1c4:	e8 58       	subi	r30, 0x88	; 136
     1c6:	e0 93 6f 00 	sts	0x006F, r30	; 0x80006f <FifoRi>
     1ca:	ff 91       	pop	r31
     1cc:	ef 91       	pop	r30
     1ce:	8f 91       	pop	r24
     1d0:	8f bf       	out	0x3f, r24	; 63
     1d2:	8f 91       	pop	r24
     1d4:	18 95       	reti

000001d6 <xputc>:
     1d6:	8a 30       	cpi	r24, 0x0A	; 10
     1d8:	19 f4       	brne	.+6      	; 0x1e0 <xputc+0xa>
     1da:	8d e0       	ldi	r24, 0x0D	; 13
     1dc:	01 d0       	rcall	.+2      	; 0x1e0 <xputc+0xa>
     1de:	8a e0       	ldi	r24, 0x0A	; 10
     1e0:	ff 93       	push	r31
     1e2:	ef 93       	push	r30
     1e4:	e0 91 6a 00 	lds	r30, 0x006A	; 0x80006a <__data_end>
     1e8:	f0 91 6b 00 	lds	r31, 0x006B	; 0x80006b <__data_end+0x1>
     1ec:	30 97       	sbiw	r30, 0x00	; 0
     1ee:	09 f0       	breq	.+2      	; 0x1f2 <xputc+0x1c>
     1f0:	09 95       	icall
     1f2:	ef 91       	pop	r30
     1f4:	ff 91       	pop	r31
     1f6:	08 95       	ret

000001f8 <xputs>:
     1f8:	fc 01       	movw	r30, r24
     1fa:	85 91       	lpm	r24, Z+
     1fc:	80 30       	cpi	r24, 0x00	; 0
     1fe:	11 f0       	breq	.+4      	; 0x204 <xputs+0xc>
     200:	ea df       	rcall	.-44     	; 0x1d6 <xputc>
     202:	fb cf       	rjmp	.-10     	; 0x1fa <xputs+0x2>
     204:	08 95       	ret

00000206 <xitoa>:
     206:	ff 27       	eor	r31, r31
     208:	e0 e2       	ldi	r30, 0x20	; 32
     20a:	30 e2       	ldi	r19, 0x20	; 32
     20c:	47 ff       	sbrs	r20, 7
     20e:	0c c0       	rjmp	.+24     	; 0x228 <xitoa+0x22>
     210:	41 95       	neg	r20
     212:	97 ff       	sbrs	r25, 7
     214:	09 c0       	rjmp	.+18     	; 0x228 <xitoa+0x22>
     216:	ed e2       	ldi	r30, 0x2D	; 45
     218:	60 95       	com	r22
     21a:	70 95       	com	r23
     21c:	80 95       	com	r24
     21e:	90 95       	com	r25
     220:	61 1d       	adc	r22, r1
     222:	71 1d       	adc	r23, r1
     224:	81 1d       	adc	r24, r1
     226:	91 1d       	adc	r25, r1
     228:	27 ff       	sbrs	r18, 7
     22a:	02 c0       	rjmp	.+4      	; 0x230 <xitoa+0x2a>
     22c:	21 95       	neg	r18
     22e:	30 e3       	ldi	r19, 0x30	; 48
     230:	50 e2       	ldi	r21, 0x20	; 32
     232:	aa 27       	eor	r26, r26
     234:	66 0f       	add	r22, r22
     236:	77 1f       	adc	r23, r23
     238:	88 1f       	adc	r24, r24
     23a:	99 1f       	adc	r25, r25
     23c:	aa 1f       	adc	r26, r26
     23e:	a4 17       	cp	r26, r20
     240:	10 f0       	brcs	.+4      	; 0x246 <xitoa+0x40>
     242:	a4 1b       	sub	r26, r20
     244:	63 95       	inc	r22
     246:	5a 95       	dec	r21
     248:	a9 f7       	brne	.-22     	; 0x234 <xitoa+0x2e>
     24a:	aa 30       	cpi	r26, 0x0A	; 10
     24c:	08 f0       	brcs	.+2      	; 0x250 <xitoa+0x4a>
     24e:	a9 5f       	subi	r26, 0xF9	; 249
     250:	a0 5d       	subi	r26, 0xD0	; 208
     252:	af 93       	push	r26
     254:	f3 95       	inc	r31
     256:	61 15       	cp	r22, r1
     258:	71 05       	cpc	r23, r1
     25a:	81 05       	cpc	r24, r1
     25c:	91 05       	cpc	r25, r1
     25e:	41 f7       	brne	.-48     	; 0x230 <xitoa+0x2a>
     260:	ed 32       	cpi	r30, 0x2D	; 45
     262:	11 f4       	brne	.+4      	; 0x268 <__stack+0x9>
     264:	ef 93       	push	r30
     266:	f3 95       	inc	r31
     268:	f2 17       	cp	r31, r18
     26a:	18 f4       	brcc	.+6      	; 0x272 <__stack+0x13>
     26c:	3f 93       	push	r19
     26e:	f3 95       	inc	r31
     270:	fb cf       	rjmp	.-10     	; 0x268 <__stack+0x9>
     272:	8f 91       	pop	r24
     274:	b0 df       	rcall	.-160    	; 0x1d6 <xputc>
     276:	fa 95       	dec	r31
     278:	e1 f7       	brne	.-8      	; 0x272 <__stack+0x13>
     27a:	08 95       	ret

0000027c <xvprintf>:
     27c:	e9 91       	ld	r30, Y+
     27e:	f9 91       	ld	r31, Y+
     280:	85 91       	lpm	r24, Z+
     282:	80 30       	cpi	r24, 0x00	; 0
     284:	21 f0       	breq	.+8      	; 0x28e <xvprintf+0x12>
     286:	85 32       	cpi	r24, 0x25	; 37
     288:	19 f0       	breq	.+6      	; 0x290 <xvprintf+0x14>
     28a:	a5 df       	rcall	.-182    	; 0x1d6 <xputc>
     28c:	f9 cf       	rjmp	.-14     	; 0x280 <xvprintf+0x4>
     28e:	08 95       	ret
     290:	20 e0       	ldi	r18, 0x00	; 0
     292:	e8 94       	clt
     294:	55 91       	lpm	r21, Z+
     296:	55 32       	cpi	r21, 0x25	; 37
     298:	c1 f3       	breq	.-16     	; 0x28a <xvprintf+0xe>
     29a:	50 33       	cpi	r21, 0x30	; 48
     29c:	11 f4       	brne	.+4      	; 0x2a2 <xvprintf+0x26>
     29e:	68 94       	set
     2a0:	55 91       	lpm	r21, Z+
     2a2:	5a 33       	cpi	r21, 0x3A	; 58
     2a4:	48 f4       	brcc	.+18     	; 0x2b8 <xvprintf+0x3c>
     2a6:	50 53       	subi	r21, 0x30	; 48
     2a8:	90 f3       	brcs	.-28     	; 0x28e <xvprintf+0x12>
     2aa:	22 0f       	add	r18, r18
     2ac:	02 2e       	mov	r0, r18
     2ae:	22 0f       	add	r18, r18
     2b0:	22 0f       	add	r18, r18
     2b2:	20 0d       	add	r18, r0
     2b4:	25 0f       	add	r18, r21
     2b6:	f4 cf       	rjmp	.-24     	; 0x2a0 <xvprintf+0x24>
     2b8:	0e f4       	brtc	.+2      	; 0x2bc <xvprintf+0x40>
     2ba:	21 95       	neg	r18
     2bc:	89 91       	ld	r24, Y+
     2be:	99 91       	ld	r25, Y+
     2c0:	53 36       	cpi	r21, 0x63	; 99
     2c2:	19 f3       	breq	.-58     	; 0x28a <xvprintf+0xe>
     2c4:	53 37       	cpi	r21, 0x73	; 115
     2c6:	29 f1       	breq	.+74     	; 0x312 <xvprintf+0x96>
     2c8:	53 35       	cpi	r21, 0x53	; 83
     2ca:	59 f1       	breq	.+86     	; 0x322 <xvprintf+0xa6>
     2cc:	bc 01       	movw	r22, r24
     2ce:	88 27       	eor	r24, r24
     2d0:	99 27       	eor	r25, r25
     2d2:	e8 94       	clt
     2d4:	5c 36       	cpi	r21, 0x6C	; 108
     2d6:	21 f4       	brne	.+8      	; 0x2e0 <xvprintf+0x64>
     2d8:	89 91       	ld	r24, Y+
     2da:	99 91       	ld	r25, Y+
     2dc:	68 94       	set
     2de:	55 91       	lpm	r21, Z+
     2e0:	54 36       	cpi	r21, 0x64	; 100
     2e2:	39 f4       	brne	.+14     	; 0x2f2 <xvprintf+0x76>
     2e4:	46 ef       	ldi	r20, 0xF6	; 246
     2e6:	7e f0       	brts	.+30     	; 0x306 <xvprintf+0x8a>
     2e8:	77 ff       	sbrs	r23, 7
     2ea:	0d c0       	rjmp	.+26     	; 0x306 <xvprintf+0x8a>
     2ec:	8f ef       	ldi	r24, 0xFF	; 255
     2ee:	9f ef       	ldi	r25, 0xFF	; 255
     2f0:	0a c0       	rjmp	.+20     	; 0x306 <xvprintf+0x8a>
     2f2:	55 37       	cpi	r21, 0x75	; 117
     2f4:	4a e0       	ldi	r20, 0x0A	; 10
     2f6:	39 f0       	breq	.+14     	; 0x306 <xvprintf+0x8a>
     2f8:	58 35       	cpi	r21, 0x58	; 88
     2fa:	40 e1       	ldi	r20, 0x10	; 16
     2fc:	21 f0       	breq	.+8      	; 0x306 <xvprintf+0x8a>
     2fe:	52 36       	cpi	r21, 0x62	; 98
     300:	42 e0       	ldi	r20, 0x02	; 2
     302:	09 f0       	breq	.+2      	; 0x306 <xvprintf+0x8a>
     304:	08 95       	ret
     306:	ff 93       	push	r31
     308:	ef 93       	push	r30
     30a:	7d df       	rcall	.-262    	; 0x206 <xitoa>
     30c:	ef 91       	pop	r30
     30e:	ff 91       	pop	r31
     310:	b7 cf       	rjmp	.-146    	; 0x280 <xvprintf+0x4>
     312:	ff 93       	push	r31
     314:	ef 93       	push	r30
     316:	fc 01       	movw	r30, r24
     318:	81 91       	ld	r24, Z+
     31a:	80 30       	cpi	r24, 0x00	; 0
     31c:	b9 f3       	breq	.-18     	; 0x30c <xvprintf+0x90>
     31e:	5b df       	rcall	.-330    	; 0x1d6 <xputc>
     320:	fb cf       	rjmp	.-10     	; 0x318 <xvprintf+0x9c>
     322:	ff 93       	push	r31
     324:	ef 93       	push	r30
     326:	68 df       	rcall	.-304    	; 0x1f8 <xputs>
     328:	f1 cf       	rjmp	.-30     	; 0x30c <xvprintf+0x90>

0000032a <xprintf>:
     32a:	df 93       	push	r29
     32c:	cf 93       	push	r28
     32e:	cd b7       	in	r28, 0x3d	; 61
     330:	de b7       	in	r29, 0x3e	; 62
     332:	25 96       	adiw	r28, 0x05	; 5
     334:	a3 df       	rcall	.-186    	; 0x27c <xvprintf>
     336:	cf 91       	pop	r28
     338:	df 91       	pop	r29
     33a:	08 95       	ret

0000033c <putram>:
     33c:	f7 01       	movw	r30, r14
     33e:	81 93       	st	Z+, r24
     340:	7f 01       	movw	r14, r30
     342:	08 95       	ret

00000344 <xsprintf>:
     344:	df 93       	push	r29
     346:	cf 93       	push	r28
     348:	cd b7       	in	r28, 0x3d	; 61
     34a:	de b7       	in	r29, 0x3e	; 62
     34c:	25 96       	adiw	r28, 0x05	; 5
     34e:	e0 91 6a 00 	lds	r30, 0x006A	; 0x80006a <__data_end>
     352:	f0 91 6b 00 	lds	r31, 0x006B	; 0x80006b <__data_end+0x1>
     356:	ef 93       	push	r30
     358:	ff 93       	push	r31
     35a:	ee e9       	ldi	r30, 0x9E	; 158
     35c:	f1 e0       	ldi	r31, 0x01	; 1
     35e:	e0 93 6a 00 	sts	0x006A, r30	; 0x80006a <__data_end>
     362:	f0 93 6b 00 	sts	0x006B, r31	; 0x80006b <__data_end+0x1>
     366:	ff 92       	push	r15
     368:	ef 92       	push	r14
     36a:	e9 90       	ld	r14, Y+
     36c:	f9 90       	ld	r15, Y+
     36e:	86 df       	rcall	.-244    	; 0x27c <xvprintf>
     370:	f7 01       	movw	r30, r14
     372:	10 82       	st	Z, r1
     374:	ef 90       	pop	r14
     376:	ff 90       	pop	r15
     378:	ff 91       	pop	r31
     37a:	ef 91       	pop	r30
     37c:	e0 93 6a 00 	sts	0x006A, r30	; 0x80006a <__data_end>
     380:	f0 93 6b 00 	sts	0x006B, r31	; 0x80006b <__data_end+0x1>
     384:	cf 91       	pop	r28
     386:	df 91       	pop	r29
     388:	08 95       	ret

0000038a <__vector_12>:
	wdt_reset();
	WDTCR = _BV(WDE) | 0b110;				/* Set WDT to reset mode in timeout of 1s */
}


EMPTY_INTERRUPT(WDT_vect);
     38a:	18 95       	reti

0000038c <clust2sect>:
     38c:	8f 92       	push	r8
     38e:	9f 92       	push	r9
     390:	af 92       	push	r10
     392:	bf 92       	push	r11
     394:	cf 92       	push	r12
     396:	df 92       	push	r13
     398:	ef 92       	push	r14
     39a:	ff 92       	push	r15
     39c:	cf 93       	push	r28
     39e:	df 93       	push	r29
     3a0:	c0 91 6c 00 	lds	r28, 0x006C	; 0x80006c <FatFs>
     3a4:	d0 91 6d 00 	lds	r29, 0x006D	; 0x80006d <FatFs+0x1>
     3a8:	62 50       	subi	r22, 0x02	; 2
     3aa:	71 09       	sbc	r23, r1
     3ac:	81 09       	sbc	r24, r1
     3ae:	91 09       	sbc	r25, r1
     3b0:	ce 80       	ldd	r12, Y+6	; 0x06
     3b2:	df 80       	ldd	r13, Y+7	; 0x07
     3b4:	e8 84       	ldd	r14, Y+8	; 0x08
     3b6:	f9 84       	ldd	r15, Y+9	; 0x09
     3b8:	22 e0       	ldi	r18, 0x02	; 2
     3ba:	c2 1a       	sub	r12, r18
     3bc:	d1 08       	sbc	r13, r1
     3be:	e1 08       	sbc	r14, r1
     3c0:	f1 08       	sbc	r15, r1
     3c2:	6c 15       	cp	r22, r12
     3c4:	7d 05       	cpc	r23, r13
     3c6:	8e 05       	cpc	r24, r14
     3c8:	9f 05       	cpc	r25, r15
     3ca:	90 f4       	brcc	.+36     	; 0x3f0 <clust2sect+0x64>
     3cc:	2a 81       	ldd	r18, Y+2	; 0x02
     3ce:	30 e0       	ldi	r19, 0x00	; 0
     3d0:	40 e0       	ldi	r20, 0x00	; 0
     3d2:	50 e0       	ldi	r21, 0x00	; 0
     3d4:	e7 d9       	rcall	.-3122   	; 0xfffff7a4 <__eeprom_end+0xff7ef7a4>
     3d6:	49 01       	movw	r8, r18
     3d8:	5a 01       	movw	r10, r20
     3da:	8a 89       	ldd	r24, Y+18	; 0x12
     3dc:	9b 89       	ldd	r25, Y+19	; 0x13
     3de:	ac 89       	ldd	r26, Y+20	; 0x14
     3e0:	bd 89       	ldd	r27, Y+21	; 0x15
     3e2:	bc 01       	movw	r22, r24
     3e4:	cd 01       	movw	r24, r26
     3e6:	68 0d       	add	r22, r8
     3e8:	79 1d       	adc	r23, r9
     3ea:	8a 1d       	adc	r24, r10
     3ec:	9b 1d       	adc	r25, r11
     3ee:	03 c0       	rjmp	.+6      	; 0x3f6 <clust2sect+0x6a>
     3f0:	60 e0       	ldi	r22, 0x00	; 0
     3f2:	70 e0       	ldi	r23, 0x00	; 0
     3f4:	cb 01       	movw	r24, r22
     3f6:	df 91       	pop	r29
     3f8:	cf 91       	pop	r28
     3fa:	ff 90       	pop	r15
     3fc:	ef 90       	pop	r14
     3fe:	df 90       	pop	r13
     400:	cf 90       	pop	r12
     402:	bf 90       	pop	r11
     404:	af 90       	pop	r10
     406:	9f 90       	pop	r9
     408:	8f 90       	pop	r8
     40a:	08 95       	ret

0000040c <dir_rewind>:
     40c:	0f 93       	push	r16
     40e:	1f 93       	push	r17
     410:	cf 93       	push	r28
     412:	df 93       	push	r29
     414:	dc 01       	movw	r26, r24
     416:	e0 91 6c 00 	lds	r30, 0x006C	; 0x80006c <FatFs>
     41a:	f0 91 6d 00 	lds	r31, 0x006D	; 0x80006d <FatFs+0x1>
     41e:	11 96       	adiw	r26, 0x01	; 1
     420:	1c 92       	st	X, r1
     422:	1e 92       	st	-X, r1
     424:	14 96       	adiw	r26, 0x04	; 4
     426:	6d 91       	ld	r22, X+
     428:	7d 91       	ld	r23, X+
     42a:	8d 91       	ld	r24, X+
     42c:	9c 91       	ld	r25, X
     42e:	17 97       	sbiw	r26, 0x07	; 7
     430:	61 30       	cpi	r22, 0x01	; 1
     432:	71 05       	cpc	r23, r1
     434:	81 05       	cpc	r24, r1
     436:	91 05       	cpc	r25, r1
     438:	61 f1       	breq	.+88     	; 0x492 <dir_rewind+0x86>
     43a:	06 81       	ldd	r16, Z+6	; 0x06
     43c:	17 81       	ldd	r17, Z+7	; 0x07
     43e:	20 85       	ldd	r18, Z+8	; 0x08
     440:	31 85       	ldd	r19, Z+9	; 0x09
     442:	60 17       	cp	r22, r16
     444:	71 07       	cpc	r23, r17
     446:	82 07       	cpc	r24, r18
     448:	93 07       	cpc	r25, r19
     44a:	18 f5       	brcc	.+70     	; 0x492 <dir_rewind+0x86>
     44c:	61 15       	cp	r22, r1
     44e:	71 05       	cpc	r23, r1
     450:	81 05       	cpc	r24, r1
     452:	91 05       	cpc	r25, r1
     454:	39 f4       	brne	.+14     	; 0x464 <dir_rewind+0x58>
     456:	20 81       	ld	r18, Z
     458:	23 30       	cpi	r18, 0x03	; 3
     45a:	21 f4       	brne	.+8      	; 0x464 <dir_rewind+0x58>
     45c:	66 85       	ldd	r22, Z+14	; 0x0e
     45e:	77 85       	ldd	r23, Z+15	; 0x0f
     460:	80 89       	ldd	r24, Z+16	; 0x10
     462:	91 89       	ldd	r25, Z+17	; 0x11
     464:	ed 01       	movw	r28, r26
     466:	68 87       	std	Y+8, r22	; 0x08
     468:	79 87       	std	Y+9, r23	; 0x09
     46a:	8a 87       	std	Y+10, r24	; 0x0a
     46c:	9b 87       	std	Y+11, r25	; 0x0b
     46e:	61 15       	cp	r22, r1
     470:	71 05       	cpc	r23, r1
     472:	81 05       	cpc	r24, r1
     474:	91 05       	cpc	r25, r1
     476:	11 f0       	breq	.+4      	; 0x47c <dir_rewind+0x70>
     478:	89 df       	rcall	.-238    	; 0x38c <clust2sect>
     47a:	04 c0       	rjmp	.+8      	; 0x484 <dir_rewind+0x78>
     47c:	66 85       	ldd	r22, Z+14	; 0x0e
     47e:	77 85       	ldd	r23, Z+15	; 0x0f
     480:	80 89       	ldd	r24, Z+16	; 0x10
     482:	91 89       	ldd	r25, Z+17	; 0x11
     484:	6c 87       	std	Y+12, r22	; 0x0c
     486:	7d 87       	std	Y+13, r23	; 0x0d
     488:	8e 87       	std	Y+14, r24	; 0x0e
     48a:	9f 87       	std	Y+15, r25	; 0x0f
     48c:	80 e0       	ldi	r24, 0x00	; 0
     48e:	90 e0       	ldi	r25, 0x00	; 0
     490:	02 c0       	rjmp	.+4      	; 0x496 <dir_rewind+0x8a>
     492:	81 e0       	ldi	r24, 0x01	; 1
     494:	90 e0       	ldi	r25, 0x00	; 0
     496:	df 91       	pop	r29
     498:	cf 91       	pop	r28
     49a:	1f 91       	pop	r17
     49c:	0f 91       	pop	r16
     49e:	08 95       	ret

000004a0 <get_fat>:
     4a0:	4f 92       	push	r4
     4a2:	5f 92       	push	r5
     4a4:	6f 92       	push	r6
     4a6:	7f 92       	push	r7
     4a8:	af 92       	push	r10
     4aa:	bf 92       	push	r11
     4ac:	cf 92       	push	r12
     4ae:	df 92       	push	r13
     4b0:	ef 92       	push	r14
     4b2:	ff 92       	push	r15
     4b4:	0f 93       	push	r16
     4b6:	1f 93       	push	r17
     4b8:	cf 93       	push	r28
     4ba:	df 93       	push	r29
     4bc:	00 d0       	rcall	.+0      	; 0x4be <get_fat+0x1e>
     4be:	00 d0       	rcall	.+0      	; 0x4c0 <get_fat+0x20>
     4c0:	cd b7       	in	r28, 0x3d	; 61
     4c2:	de b7       	in	r29, 0x3e	; 62
     4c4:	6b 01       	movw	r12, r22
     4c6:	7c 01       	movw	r14, r24
     4c8:	a0 90 6c 00 	lds	r10, 0x006C	; 0x80006c <FatFs>
     4cc:	b0 90 6d 00 	lds	r11, 0x006D	; 0x80006d <FatFs+0x1>
     4d0:	82 e0       	ldi	r24, 0x02	; 2
     4d2:	c8 16       	cp	r12, r24
     4d4:	d1 04       	cpc	r13, r1
     4d6:	e1 04       	cpc	r14, r1
     4d8:	f1 04       	cpc	r15, r1
     4da:	08 f4       	brcc	.+2      	; 0x4de <get_fat+0x3e>
     4dc:	a3 c0       	rjmp	.+326    	; 0x624 <get_fat+0x184>
     4de:	f5 01       	movw	r30, r10
     4e0:	86 81       	ldd	r24, Z+6	; 0x06
     4e2:	97 81       	ldd	r25, Z+7	; 0x07
     4e4:	a0 85       	ldd	r26, Z+8	; 0x08
     4e6:	b1 85       	ldd	r27, Z+9	; 0x09
     4e8:	c8 16       	cp	r12, r24
     4ea:	d9 06       	cpc	r13, r25
     4ec:	ea 06       	cpc	r14, r26
     4ee:	fb 06       	cpc	r15, r27
     4f0:	08 f0       	brcs	.+2      	; 0x4f4 <get_fat+0x54>
     4f2:	98 c0       	rjmp	.+304    	; 0x624 <get_fat+0x184>
     4f4:	80 81       	ld	r24, Z
     4f6:	82 30       	cpi	r24, 0x02	; 2
     4f8:	09 f4       	brne	.+2      	; 0x4fc <get_fat+0x5c>
     4fa:	53 c0       	rjmp	.+166    	; 0x5a2 <get_fat+0x102>
     4fc:	83 30       	cpi	r24, 0x03	; 3
     4fe:	09 f4       	brne	.+2      	; 0x502 <get_fat+0x62>
     500:	6b c0       	rjmp	.+214    	; 0x5d8 <get_fat+0x138>
     502:	81 30       	cpi	r24, 0x01	; 1
     504:	09 f0       	breq	.+2      	; 0x508 <get_fat+0x68>
     506:	8e c0       	rjmp	.+284    	; 0x624 <get_fat+0x184>
     508:	26 01       	movw	r4, r12
     50a:	56 94       	lsr	r5
     50c:	47 94       	ror	r4
     50e:	4c 0c       	add	r4, r12
     510:	5d 1c       	adc	r5, r13
     512:	92 01       	movw	r18, r4
     514:	31 70       	andi	r19, 0x01	; 1
     516:	45 2c       	mov	r4, r5
     518:	55 24       	eor	r5, r5
     51a:	46 94       	lsr	r4
     51c:	61 2c       	mov	r6, r1
     51e:	71 2c       	mov	r7, r1
     520:	f5 01       	movw	r30, r10
     522:	42 85       	ldd	r20, Z+10	; 0x0a
     524:	53 85       	ldd	r21, Z+11	; 0x0b
     526:	64 85       	ldd	r22, Z+12	; 0x0c
     528:	75 85       	ldd	r23, Z+13	; 0x0d
     52a:	44 0d       	add	r20, r4
     52c:	55 1d       	adc	r21, r5
     52e:	66 1d       	adc	r22, r6
     530:	77 1d       	adc	r23, r7
     532:	2f 3f       	cpi	r18, 0xFF	; 255
     534:	f1 e0       	ldi	r31, 0x01	; 1
     536:	3f 07       	cpc	r19, r31
     538:	29 f0       	breq	.+10     	; 0x544 <get_fat+0xa4>
     53a:	02 e0       	ldi	r16, 0x02	; 2
     53c:	10 e0       	ldi	r17, 0x00	; 0
     53e:	ce 01       	movw	r24, r28
     540:	01 96       	adiw	r24, 0x01	; 1
     542:	1b c0       	rjmp	.+54     	; 0x57a <get_fat+0xda>
     544:	01 e0       	ldi	r16, 0x01	; 1
     546:	10 e0       	ldi	r17, 0x00	; 0
     548:	2f ef       	ldi	r18, 0xFF	; 255
     54a:	31 e0       	ldi	r19, 0x01	; 1
     54c:	ce 01       	movw	r24, r28
     54e:	01 96       	adiw	r24, 0x01	; 1
     550:	dd d6       	rcall	.+3514   	; 0x130c <disk_readp>
     552:	89 2b       	or	r24, r25
     554:	09 f0       	breq	.+2      	; 0x558 <get_fat+0xb8>
     556:	66 c0       	rjmp	.+204    	; 0x624 <get_fat+0x184>
     558:	f5 01       	movw	r30, r10
     55a:	42 85       	ldd	r20, Z+10	; 0x0a
     55c:	53 85       	ldd	r21, Z+11	; 0x0b
     55e:	64 85       	ldd	r22, Z+12	; 0x0c
     560:	75 85       	ldd	r23, Z+13	; 0x0d
     562:	4f 5f       	subi	r20, 0xFF	; 255
     564:	5f 4f       	sbci	r21, 0xFF	; 255
     566:	6f 4f       	sbci	r22, 0xFF	; 255
     568:	7f 4f       	sbci	r23, 0xFF	; 255
     56a:	44 0d       	add	r20, r4
     56c:	55 1d       	adc	r21, r5
     56e:	66 1d       	adc	r22, r6
     570:	77 1d       	adc	r23, r7
     572:	20 e0       	ldi	r18, 0x00	; 0
     574:	30 e0       	ldi	r19, 0x00	; 0
     576:	ce 01       	movw	r24, r28
     578:	02 96       	adiw	r24, 0x02	; 2
     57a:	c8 d6       	rcall	.+3472   	; 0x130c <disk_readp>
     57c:	89 2b       	or	r24, r25
     57e:	09 f0       	breq	.+2      	; 0x582 <get_fat+0xe2>
     580:	51 c0       	rjmp	.+162    	; 0x624 <get_fat+0x184>
     582:	89 81       	ldd	r24, Y+1	; 0x01
     584:	9a 81       	ldd	r25, Y+2	; 0x02
     586:	c0 fe       	sbrs	r12, 0
     588:	07 c0       	rjmp	.+14     	; 0x598 <get_fat+0xf8>
     58a:	bc 01       	movw	r22, r24
     58c:	e4 e0       	ldi	r30, 0x04	; 4
     58e:	76 95       	lsr	r23
     590:	67 95       	ror	r22
     592:	ea 95       	dec	r30
     594:	e1 f7       	brne	.-8      	; 0x58e <get_fat+0xee>
     596:	02 c0       	rjmp	.+4      	; 0x59c <get_fat+0xfc>
     598:	bc 01       	movw	r22, r24
     59a:	7f 70       	andi	r23, 0x0F	; 15
     59c:	80 e0       	ldi	r24, 0x00	; 0
     59e:	90 e0       	ldi	r25, 0x00	; 0
     5a0:	45 c0       	rjmp	.+138    	; 0x62c <get_fat+0x18c>
     5a2:	96 01       	movw	r18, r12
     5a4:	33 27       	eor	r19, r19
     5a6:	22 0f       	add	r18, r18
     5a8:	33 1f       	adc	r19, r19
     5aa:	77 27       	eor	r23, r23
     5ac:	6f 2d       	mov	r22, r15
     5ae:	5e 2d       	mov	r21, r14
     5b0:	4d 2d       	mov	r20, r13
     5b2:	f5 01       	movw	r30, r10
     5b4:	82 85       	ldd	r24, Z+10	; 0x0a
     5b6:	93 85       	ldd	r25, Z+11	; 0x0b
     5b8:	a4 85       	ldd	r26, Z+12	; 0x0c
     5ba:	b5 85       	ldd	r27, Z+13	; 0x0d
     5bc:	48 0f       	add	r20, r24
     5be:	59 1f       	adc	r21, r25
     5c0:	6a 1f       	adc	r22, r26
     5c2:	7b 1f       	adc	r23, r27
     5c4:	02 e0       	ldi	r16, 0x02	; 2
     5c6:	10 e0       	ldi	r17, 0x00	; 0
     5c8:	ce 01       	movw	r24, r28
     5ca:	01 96       	adiw	r24, 0x01	; 1
     5cc:	9f d6       	rcall	.+3390   	; 0x130c <disk_readp>
     5ce:	89 2b       	or	r24, r25
     5d0:	49 f5       	brne	.+82     	; 0x624 <get_fat+0x184>
     5d2:	69 81       	ldd	r22, Y+1	; 0x01
     5d4:	7a 81       	ldd	r23, Y+2	; 0x02
     5d6:	e2 cf       	rjmp	.-60     	; 0x59c <get_fat+0xfc>
     5d8:	96 01       	movw	r18, r12
     5da:	2f 77       	andi	r18, 0x7F	; 127
     5dc:	33 27       	eor	r19, r19
     5de:	22 0f       	add	r18, r18
     5e0:	33 1f       	adc	r19, r19
     5e2:	22 0f       	add	r18, r18
     5e4:	33 1f       	adc	r19, r19
     5e6:	97 e0       	ldi	r25, 0x07	; 7
     5e8:	f6 94       	lsr	r15
     5ea:	e7 94       	ror	r14
     5ec:	d7 94       	ror	r13
     5ee:	c7 94       	ror	r12
     5f0:	9a 95       	dec	r25
     5f2:	d1 f7       	brne	.-12     	; 0x5e8 <get_fat+0x148>
     5f4:	f5 01       	movw	r30, r10
     5f6:	42 85       	ldd	r20, Z+10	; 0x0a
     5f8:	53 85       	ldd	r21, Z+11	; 0x0b
     5fa:	64 85       	ldd	r22, Z+12	; 0x0c
     5fc:	75 85       	ldd	r23, Z+13	; 0x0d
     5fe:	4c 0d       	add	r20, r12
     600:	5d 1d       	adc	r21, r13
     602:	6e 1d       	adc	r22, r14
     604:	7f 1d       	adc	r23, r15
     606:	04 e0       	ldi	r16, 0x04	; 4
     608:	10 e0       	ldi	r17, 0x00	; 0
     60a:	ce 01       	movw	r24, r28
     60c:	01 96       	adiw	r24, 0x01	; 1
     60e:	7e d6       	rcall	.+3324   	; 0x130c <disk_readp>
     610:	89 2b       	or	r24, r25
     612:	41 f4       	brne	.+16     	; 0x624 <get_fat+0x184>
     614:	89 81       	ldd	r24, Y+1	; 0x01
     616:	9a 81       	ldd	r25, Y+2	; 0x02
     618:	ab 81       	ldd	r26, Y+3	; 0x03
     61a:	bc 81       	ldd	r27, Y+4	; 0x04
     61c:	bc 01       	movw	r22, r24
     61e:	cd 01       	movw	r24, r26
     620:	9f 70       	andi	r25, 0x0F	; 15
     622:	04 c0       	rjmp	.+8      	; 0x62c <get_fat+0x18c>
     624:	61 e0       	ldi	r22, 0x01	; 1
     626:	70 e0       	ldi	r23, 0x00	; 0
     628:	80 e0       	ldi	r24, 0x00	; 0
     62a:	90 e0       	ldi	r25, 0x00	; 0
     62c:	0f 90       	pop	r0
     62e:	0f 90       	pop	r0
     630:	0f 90       	pop	r0
     632:	0f 90       	pop	r0
     634:	df 91       	pop	r29
     636:	cf 91       	pop	r28
     638:	1f 91       	pop	r17
     63a:	0f 91       	pop	r16
     63c:	ff 90       	pop	r15
     63e:	ef 90       	pop	r14
     640:	df 90       	pop	r13
     642:	cf 90       	pop	r12
     644:	bf 90       	pop	r11
     646:	af 90       	pop	r10
     648:	7f 90       	pop	r7
     64a:	6f 90       	pop	r6
     64c:	5f 90       	pop	r5
     64e:	4f 90       	pop	r4
     650:	08 95       	ret

00000652 <dir_next>:
     652:	a0 e0       	ldi	r26, 0x00	; 0
     654:	b0 e0       	ldi	r27, 0x00	; 0
     656:	ee e2       	ldi	r30, 0x2E	; 46
     658:	f3 e0       	ldi	r31, 0x03	; 3
     65a:	c9 c8       	rjmp	.-3694   	; 0xfffff7ee <__eeprom_end+0xff7ef7ee>
     65c:	ec 01       	movw	r28, r24
     65e:	e0 90 6c 00 	lds	r14, 0x006C	; 0x80006c <FatFs>
     662:	f0 90 6d 00 	lds	r15, 0x006D	; 0x80006d <FatFs+0x1>
     666:	08 81       	ld	r16, Y
     668:	19 81       	ldd	r17, Y+1	; 0x01
     66a:	0f 5f       	subi	r16, 0xFF	; 255
     66c:	1f 4f       	sbci	r17, 0xFF	; 255
     66e:	19 f4       	brne	.+6      	; 0x676 <dir_next+0x24>
     670:	83 e0       	ldi	r24, 0x03	; 3
     672:	90 e0       	ldi	r25, 0x00	; 0
     674:	57 c0       	rjmp	.+174    	; 0x724 <dir_next+0xd2>
     676:	4c 85       	ldd	r20, Y+12	; 0x0c
     678:	5d 85       	ldd	r21, Y+13	; 0x0d
     67a:	6e 85       	ldd	r22, Y+14	; 0x0e
     67c:	7f 85       	ldd	r23, Y+15	; 0x0f
     67e:	41 15       	cp	r20, r1
     680:	51 05       	cpc	r21, r1
     682:	61 05       	cpc	r22, r1
     684:	71 05       	cpc	r23, r1
     686:	a1 f3       	breq	.-24     	; 0x670 <dir_next+0x1e>
     688:	c8 01       	movw	r24, r16
     68a:	8f 70       	andi	r24, 0x0F	; 15
     68c:	99 27       	eor	r25, r25
     68e:	89 2b       	or	r24, r25
     690:	09 f0       	breq	.+2      	; 0x694 <dir_next+0x42>
     692:	41 c0       	rjmp	.+130    	; 0x716 <dir_next+0xc4>
     694:	4f 5f       	subi	r20, 0xFF	; 255
     696:	5f 4f       	sbci	r21, 0xFF	; 255
     698:	6f 4f       	sbci	r22, 0xFF	; 255
     69a:	7f 4f       	sbci	r23, 0xFF	; 255
     69c:	4c 87       	std	Y+12, r20	; 0x0c
     69e:	5d 87       	std	Y+13, r21	; 0x0d
     6a0:	6e 87       	std	Y+14, r22	; 0x0e
     6a2:	7f 87       	std	Y+15, r23	; 0x0f
     6a4:	68 85       	ldd	r22, Y+8	; 0x08
     6a6:	79 85       	ldd	r23, Y+9	; 0x09
     6a8:	8a 85       	ldd	r24, Y+10	; 0x0a
     6aa:	9b 85       	ldd	r25, Y+11	; 0x0b
     6ac:	f7 01       	movw	r30, r14
     6ae:	61 15       	cp	r22, r1
     6b0:	71 05       	cpc	r23, r1
     6b2:	81 05       	cpc	r24, r1
     6b4:	91 05       	cpc	r25, r1
     6b6:	31 f4       	brne	.+12     	; 0x6c4 <dir_next+0x72>
     6b8:	84 81       	ldd	r24, Z+4	; 0x04
     6ba:	95 81       	ldd	r25, Z+5	; 0x05
     6bc:	08 17       	cp	r16, r24
     6be:	19 07       	cpc	r17, r25
     6c0:	b8 f6       	brcc	.-82     	; 0x670 <dir_next+0x1e>
     6c2:	29 c0       	rjmp	.+82     	; 0x716 <dir_next+0xc4>
     6c4:	22 81       	ldd	r18, Z+2	; 0x02
     6c6:	30 e0       	ldi	r19, 0x00	; 0
     6c8:	a9 01       	movw	r20, r18
     6ca:	41 50       	subi	r20, 0x01	; 1
     6cc:	51 09       	sbc	r21, r1
     6ce:	98 01       	movw	r18, r16
     6d0:	e4 e0       	ldi	r30, 0x04	; 4
     6d2:	36 95       	lsr	r19
     6d4:	27 95       	ror	r18
     6d6:	ea 95       	dec	r30
     6d8:	e1 f7       	brne	.-8      	; 0x6d2 <dir_next+0x80>
     6da:	24 23       	and	r18, r20
     6dc:	35 23       	and	r19, r21
     6de:	23 2b       	or	r18, r19
     6e0:	d1 f4       	brne	.+52     	; 0x716 <dir_next+0xc4>
     6e2:	de de       	rcall	.-580    	; 0x4a0 <get_fat>
     6e4:	62 30       	cpi	r22, 0x02	; 2
     6e6:	71 05       	cpc	r23, r1
     6e8:	81 05       	cpc	r24, r1
     6ea:	91 05       	cpc	r25, r1
     6ec:	c8 f0       	brcs	.+50     	; 0x720 <dir_next+0xce>
     6ee:	f7 01       	movw	r30, r14
     6f0:	c6 80       	ldd	r12, Z+6	; 0x06
     6f2:	d7 80       	ldd	r13, Z+7	; 0x07
     6f4:	e0 84       	ldd	r14, Z+8	; 0x08
     6f6:	f1 84       	ldd	r15, Z+9	; 0x09
     6f8:	6c 15       	cp	r22, r12
     6fa:	7d 05       	cpc	r23, r13
     6fc:	8e 05       	cpc	r24, r14
     6fe:	9f 05       	cpc	r25, r15
     700:	08 f0       	brcs	.+2      	; 0x704 <dir_next+0xb2>
     702:	b6 cf       	rjmp	.-148    	; 0x670 <dir_next+0x1e>
     704:	68 87       	std	Y+8, r22	; 0x08
     706:	79 87       	std	Y+9, r23	; 0x09
     708:	8a 87       	std	Y+10, r24	; 0x0a
     70a:	9b 87       	std	Y+11, r25	; 0x0b
     70c:	3f de       	rcall	.-898    	; 0x38c <clust2sect>
     70e:	6c 87       	std	Y+12, r22	; 0x0c
     710:	7d 87       	std	Y+13, r23	; 0x0d
     712:	8e 87       	std	Y+14, r24	; 0x0e
     714:	9f 87       	std	Y+15, r25	; 0x0f
     716:	19 83       	std	Y+1, r17	; 0x01
     718:	08 83       	st	Y, r16
     71a:	80 e0       	ldi	r24, 0x00	; 0
     71c:	90 e0       	ldi	r25, 0x00	; 0
     71e:	02 c0       	rjmp	.+4      	; 0x724 <dir_next+0xd2>
     720:	81 e0       	ldi	r24, 0x01	; 1
     722:	90 e0       	ldi	r25, 0x00	; 0
     724:	cd b7       	in	r28, 0x3d	; 61
     726:	de b7       	in	r29, 0x3e	; 62
     728:	e8 e0       	ldi	r30, 0x08	; 8
     72a:	7d c8       	rjmp	.-3846   	; 0xfffff826 <__eeprom_end+0xff7ef826>

0000072c <check_fs>:
     72c:	a0 e0       	ldi	r26, 0x00	; 0
     72e:	b0 e0       	ldi	r27, 0x00	; 0
     730:	eb e9       	ldi	r30, 0x9B	; 155
     732:	f3 e0       	ldi	r31, 0x03	; 3
     734:	5c c8       	rjmp	.-3912   	; 0xfffff7ee <__eeprom_end+0xff7ef7ee>
     736:	ec 01       	movw	r28, r24
     738:	6a 01       	movw	r12, r20
     73a:	7b 01       	movw	r14, r22
     73c:	02 e0       	ldi	r16, 0x02	; 2
     73e:	10 e0       	ldi	r17, 0x00	; 0
     740:	2e ef       	ldi	r18, 0xFE	; 254
     742:	31 e0       	ldi	r19, 0x01	; 1
     744:	e3 d5       	rcall	.+3014   	; 0x130c <disk_readp>
     746:	89 2b       	or	r24, r25
     748:	21 f5       	brne	.+72     	; 0x792 <check_fs+0x66>
     74a:	88 81       	ld	r24, Y
     74c:	99 81       	ldd	r25, Y+1	; 0x01
     74e:	85 35       	cpi	r24, 0x55	; 85
     750:	9a 4a       	sbci	r25, 0xAA	; 170
     752:	09 f5       	brne	.+66     	; 0x796 <check_fs+0x6a>
     754:	26 e3       	ldi	r18, 0x36	; 54
     756:	30 e0       	ldi	r19, 0x00	; 0
     758:	b7 01       	movw	r22, r14
     75a:	a6 01       	movw	r20, r12
     75c:	ce 01       	movw	r24, r28
     75e:	d6 d5       	rcall	.+2988   	; 0x130c <disk_readp>
     760:	89 2b       	or	r24, r25
     762:	39 f4       	brne	.+14     	; 0x772 <check_fs+0x46>
     764:	88 81       	ld	r24, Y
     766:	99 81       	ldd	r25, Y+1	; 0x01
     768:	86 34       	cpi	r24, 0x46	; 70
     76a:	91 44       	sbci	r25, 0x41	; 65
     76c:	11 f4       	brne	.+4      	; 0x772 <check_fs+0x46>
     76e:	80 e0       	ldi	r24, 0x00	; 0
     770:	15 c0       	rjmp	.+42     	; 0x79c <check_fs+0x70>
     772:	02 e0       	ldi	r16, 0x02	; 2
     774:	10 e0       	ldi	r17, 0x00	; 0
     776:	22 e5       	ldi	r18, 0x52	; 82
     778:	30 e0       	ldi	r19, 0x00	; 0
     77a:	b7 01       	movw	r22, r14
     77c:	a6 01       	movw	r20, r12
     77e:	ce 01       	movw	r24, r28
     780:	c5 d5       	rcall	.+2954   	; 0x130c <disk_readp>
     782:	89 2b       	or	r24, r25
     784:	51 f4       	brne	.+20     	; 0x79a <check_fs+0x6e>
     786:	88 81       	ld	r24, Y
     788:	99 81       	ldd	r25, Y+1	; 0x01
     78a:	86 34       	cpi	r24, 0x46	; 70
     78c:	91 44       	sbci	r25, 0x41	; 65
     78e:	29 f4       	brne	.+10     	; 0x79a <check_fs+0x6e>
     790:	ee cf       	rjmp	.-36     	; 0x76e <check_fs+0x42>
     792:	83 e0       	ldi	r24, 0x03	; 3
     794:	03 c0       	rjmp	.+6      	; 0x79c <check_fs+0x70>
     796:	82 e0       	ldi	r24, 0x02	; 2
     798:	01 c0       	rjmp	.+2      	; 0x79c <check_fs+0x70>
     79a:	81 e0       	ldi	r24, 0x01	; 1
     79c:	cd b7       	in	r28, 0x3d	; 61
     79e:	de b7       	in	r29, 0x3e	; 62
     7a0:	e8 e0       	ldi	r30, 0x08	; 8
     7a2:	41 c8       	rjmp	.-3966   	; 0xfffff826 <__eeprom_end+0xff7ef826>

000007a4 <follow_path>:
     7a4:	a0 e0       	ldi	r26, 0x00	; 0
     7a6:	b0 e0       	ldi	r27, 0x00	; 0
     7a8:	e7 ed       	ldi	r30, 0xD7	; 215
     7aa:	f3 e0       	ldi	r31, 0x03	; 3
     7ac:	1d c8       	rjmp	.-4038   	; 0xfffff7e8 <__eeprom_end+0xff7ef7e8>
     7ae:	ec 01       	movw	r28, r24
     7b0:	6b 01       	movw	r12, r22
     7b2:	24 2f       	mov	r18, r20
     7b4:	95 2f       	mov	r25, r21
     7b6:	da 01       	movw	r26, r20
     7b8:	8d 91       	ld	r24, X+
     7ba:	ad 01       	movw	r20, r26
     7bc:	80 32       	cpi	r24, 0x20	; 32
     7be:	c9 f3       	breq	.-14     	; 0x7b2 <follow_path+0xe>
     7c0:	e2 2e       	mov	r14, r18
     7c2:	f9 2e       	mov	r15, r25
     7c4:	8f 32       	cpi	r24, 0x2F	; 47
     7c6:	19 f4       	brne	.+6      	; 0x7ce <follow_path+0x2a>
     7c8:	bf ef       	ldi	r27, 0xFF	; 255
     7ca:	eb 1a       	sub	r14, r27
     7cc:	fb 0a       	sbc	r15, r27
     7ce:	1c 82       	std	Y+4, r1	; 0x04
     7d0:	1d 82       	std	Y+5, r1	; 0x05
     7d2:	1e 82       	std	Y+6, r1	; 0x06
     7d4:	1f 82       	std	Y+7, r1	; 0x07
     7d6:	f7 01       	movw	r30, r14
     7d8:	80 81       	ld	r24, Z
     7da:	81 32       	cpi	r24, 0x21	; 33
     7dc:	38 f0       	brcs	.+14     	; 0x7ec <follow_path+0x48>
     7de:	50 e2       	ldi	r21, 0x20	; 32
     7e0:	95 2e       	mov	r9, r21
     7e2:	56 01       	movw	r10, r12
     7e4:	fb e0       	ldi	r31, 0x0B	; 11
     7e6:	af 0e       	add	r10, r31
     7e8:	b1 1c       	adc	r11, r1
     7ea:	5e c0       	rjmp	.+188    	; 0x8a8 <follow_path+0x104>
     7ec:	ce 01       	movw	r24, r28
     7ee:	0e de       	rcall	.-996    	; 0x40c <dir_rewind>
     7f0:	d6 01       	movw	r26, r12
     7f2:	1c 92       	st	X, r1
     7f4:	c9 c0       	rjmp	.+402    	; 0x988 <follow_path+0x1e4>
     7f6:	90 e0       	ldi	r25, 0x00	; 0
     7f8:	10 e0       	ldi	r17, 0x00	; 0
     7fa:	48 e0       	ldi	r20, 0x08	; 8
     7fc:	51 e0       	ldi	r21, 0x01	; 1
     7fe:	51 0f       	add	r21, r17
     800:	97 01       	movw	r18, r14
     802:	21 0f       	add	r18, r17
     804:	31 1d       	adc	r19, r1
     806:	d9 01       	movw	r26, r18
     808:	8c 91       	ld	r24, X
     80a:	81 32       	cpi	r24, 0x21	; 33
     80c:	08 f0       	brcs	.+2      	; 0x810 <follow_path+0x6c>
     80e:	57 c0       	rjmp	.+174    	; 0x8be <follow_path+0x11a>
     810:	e5 0e       	add	r14, r21
     812:	f1 1c       	adc	r15, r1
     814:	91 e0       	ldi	r25, 0x01	; 1
     816:	81 32       	cpi	r24, 0x21	; 33
     818:	08 f0       	brcs	.+2      	; 0x81c <follow_path+0x78>
     81a:	90 e0       	ldi	r25, 0x00	; 0
     81c:	93 87       	std	Z+11, r25	; 0x0b
     81e:	ce 01       	movw	r24, r28
     820:	f5 dd       	rcall	.-1046   	; 0x40c <dir_rewind>
     822:	00 97       	sbiw	r24, 0x00	; 0
     824:	09 f0       	breq	.+2      	; 0x828 <follow_path+0x84>
     826:	96 c0       	rjmp	.+300    	; 0x954 <follow_path+0x1b0>
     828:	28 81       	ld	r18, Y
     82a:	39 81       	ldd	r19, Y+1	; 0x01
     82c:	2f 70       	andi	r18, 0x0F	; 15
     82e:	33 27       	eor	r19, r19
     830:	45 e0       	ldi	r20, 0x05	; 5
     832:	22 0f       	add	r18, r18
     834:	33 1f       	adc	r19, r19
     836:	4a 95       	dec	r20
     838:	e1 f7       	brne	.-8      	; 0x832 <follow_path+0x8e>
     83a:	4c 85       	ldd	r20, Y+12	; 0x0c
     83c:	5d 85       	ldd	r21, Y+13	; 0x0d
     83e:	6e 85       	ldd	r22, Y+14	; 0x0e
     840:	7f 85       	ldd	r23, Y+15	; 0x0f
     842:	00 e2       	ldi	r16, 0x20	; 32
     844:	10 e0       	ldi	r17, 0x00	; 0
     846:	c6 01       	movw	r24, r12
     848:	61 d5       	rcall	.+2754   	; 0x130c <disk_readp>
     84a:	89 2b       	or	r24, r25
     84c:	09 f0       	breq	.+2      	; 0x850 <follow_path+0xac>
     84e:	8d c0       	rjmp	.+282    	; 0x96a <follow_path+0x1c6>
     850:	f6 01       	movw	r30, r12
     852:	80 81       	ld	r24, Z
     854:	88 23       	and	r24, r24
     856:	09 f4       	brne	.+2      	; 0x85a <follow_path+0xb6>
     858:	80 c0       	rjmp	.+256    	; 0x95a <follow_path+0x1b6>
     85a:	43 85       	ldd	r20, Z+11	; 0x0b
     85c:	43 fd       	sbrc	r20, 3
     85e:	77 c0       	rjmp	.+238    	; 0x94e <follow_path+0x1aa>
     860:	6a 81       	ldd	r22, Y+2	; 0x02
     862:	7b 81       	ldd	r23, Y+3	; 0x03
     864:	9b 01       	movw	r18, r22
     866:	ea 15       	cp	r30, r10
     868:	fb 05       	cpc	r31, r11
     86a:	09 f0       	breq	.+2      	; 0x86e <follow_path+0xca>
     86c:	62 c0       	rjmp	.+196    	; 0x932 <follow_path+0x18e>
     86e:	fb 01       	movw	r30, r22
     870:	83 85       	ldd	r24, Z+11	; 0x0b
     872:	81 11       	cpse	r24, r1
     874:	7d c0       	rjmp	.+250    	; 0x970 <follow_path+0x1cc>
     876:	44 ff       	sbrs	r20, 4
     878:	7e c0       	rjmp	.+252    	; 0x976 <follow_path+0x1d2>
     87a:	d6 01       	movw	r26, r12
     87c:	54 96       	adiw	r26, 0x14	; 20
     87e:	8d 91       	ld	r24, X+
     880:	9c 91       	ld	r25, X
     882:	55 97       	sbiw	r26, 0x15	; 21
     884:	a0 e0       	ldi	r26, 0x00	; 0
     886:	b0 e0       	ldi	r27, 0x00	; 0
     888:	dc 01       	movw	r26, r24
     88a:	99 27       	eor	r25, r25
     88c:	88 27       	eor	r24, r24
     88e:	f6 01       	movw	r30, r12
     890:	42 8d       	ldd	r20, Z+26	; 0x1a
     892:	53 8d       	ldd	r21, Z+27	; 0x1b
     894:	60 e0       	ldi	r22, 0x00	; 0
     896:	70 e0       	ldi	r23, 0x00	; 0
     898:	84 2b       	or	r24, r20
     89a:	95 2b       	or	r25, r21
     89c:	a6 2b       	or	r26, r22
     89e:	b7 2b       	or	r27, r23
     8a0:	8c 83       	std	Y+4, r24	; 0x04
     8a2:	9d 83       	std	Y+5, r25	; 0x05
     8a4:	ae 83       	std	Y+6, r26	; 0x06
     8a6:	bf 83       	std	Y+7, r27	; 0x07
     8a8:	ea 81       	ldd	r30, Y+2	; 0x02
     8aa:	fb 81       	ldd	r31, Y+3	; 0x03
     8ac:	df 01       	movw	r26, r30
     8ae:	cf 01       	movw	r24, r30
     8b0:	0b 96       	adiw	r24, 0x0b	; 11
     8b2:	a8 17       	cp	r26, r24
     8b4:	b9 07       	cpc	r27, r25
     8b6:	09 f4       	brne	.+2      	; 0x8ba <follow_path+0x116>
     8b8:	9e cf       	rjmp	.-196    	; 0x7f6 <follow_path+0x52>
     8ba:	9d 92       	st	X+, r9
     8bc:	fa cf       	rjmp	.-12     	; 0x8b2 <follow_path+0x10e>
     8be:	8f 32       	cpi	r24, 0x2F	; 47
     8c0:	09 f4       	brne	.+2      	; 0x8c4 <follow_path+0x120>
     8c2:	a6 cf       	rjmp	.-180    	; 0x810 <follow_path+0x6c>
     8c4:	8e 32       	cpi	r24, 0x2E	; 46
     8c6:	09 f4       	brne	.+2      	; 0x8ca <follow_path+0x126>
     8c8:	59 c0       	rjmp	.+178    	; 0x97c <follow_path+0x1d8>
     8ca:	94 17       	cp	r25, r20
     8cc:	08 f0       	brcs	.+2      	; 0x8d0 <follow_path+0x12c>
     8ce:	a0 cf       	rjmp	.-192    	; 0x810 <follow_path+0x6c>
     8d0:	29 2f       	mov	r18, r25
     8d2:	30 e0       	ldi	r19, 0x00	; 0
     8d4:	01 e0       	ldi	r16, 0x01	; 1
     8d6:	09 0f       	add	r16, r25
     8d8:	6f e7       	ldi	r22, 0x7F	; 127
     8da:	68 0f       	add	r22, r24
     8dc:	6f 31       	cpi	r22, 0x1F	; 31
     8de:	20 f0       	brcs	.+8      	; 0x8e8 <follow_path+0x144>
     8e0:	60 e2       	ldi	r22, 0x20	; 32
     8e2:	68 0f       	add	r22, r24
     8e4:	6d 31       	cpi	r22, 0x1D	; 29
     8e6:	d0 f4       	brcc	.+52     	; 0x91c <follow_path+0x178>
     8e8:	64 2f       	mov	r22, r20
     8ea:	70 e0       	ldi	r23, 0x00	; 0
     8ec:	61 50       	subi	r22, 0x01	; 1
     8ee:	71 09       	sbc	r23, r1
     8f0:	26 17       	cp	r18, r22
     8f2:	37 07       	cpc	r19, r23
     8f4:	9c f4       	brge	.+38     	; 0x91c <follow_path+0x178>
     8f6:	b7 01       	movw	r22, r14
     8f8:	65 0f       	add	r22, r21
     8fa:	71 1d       	adc	r23, r1
     8fc:	db 01       	movw	r26, r22
     8fe:	5c 91       	ld	r21, X
     900:	2e 0f       	add	r18, r30
     902:	3f 1f       	adc	r19, r31
     904:	d9 01       	movw	r26, r18
     906:	8c 93       	st	X, r24
     908:	9e 5f       	subi	r25, 0xFE	; 254
     90a:	9f 01       	movw	r18, r30
     90c:	20 0f       	add	r18, r16
     90e:	31 1d       	adc	r19, r1
     910:	d9 01       	movw	r26, r18
     912:	5c 93       	st	X, r21
     914:	52 e0       	ldi	r21, 0x02	; 2
     916:	51 0f       	add	r21, r17
     918:	15 2f       	mov	r17, r21
     91a:	70 cf       	rjmp	.-288    	; 0x7fc <follow_path+0x58>
     91c:	9f e9       	ldi	r25, 0x9F	; 159
     91e:	98 0f       	add	r25, r24
     920:	9a 31       	cpi	r25, 0x1A	; 26
     922:	08 f4       	brcc	.+2      	; 0x926 <follow_path+0x182>
     924:	80 52       	subi	r24, 0x20	; 32
     926:	2e 0f       	add	r18, r30
     928:	3f 1f       	adc	r19, r31
     92a:	d9 01       	movw	r26, r18
     92c:	8c 93       	st	X, r24
     92e:	90 2f       	mov	r25, r16
     930:	f3 cf       	rjmp	.-26     	; 0x918 <follow_path+0x174>
     932:	81 91       	ld	r24, Z+
     934:	d9 01       	movw	r26, r18
     936:	5d 91       	ld	r21, X+
     938:	9d 01       	movw	r18, r26
     93a:	99 27       	eor	r25, r25
     93c:	87 fd       	sbrc	r24, 7
     93e:	90 95       	com	r25
     940:	85 1b       	sub	r24, r21
     942:	91 09       	sbc	r25, r1
     944:	57 fd       	sbrc	r21, 7
     946:	93 95       	inc	r25
     948:	89 2b       	or	r24, r25
     94a:	09 f4       	brne	.+2      	; 0x94e <follow_path+0x1aa>
     94c:	8c cf       	rjmp	.-232    	; 0x866 <follow_path+0xc2>
     94e:	ce 01       	movw	r24, r28
     950:	80 de       	rcall	.-768    	; 0x652 <dir_next>
     952:	67 cf       	rjmp	.-306    	; 0x822 <follow_path+0x7e>
     954:	83 30       	cpi	r24, 0x03	; 3
     956:	91 05       	cpc	r25, r1
     958:	b9 f4       	brne	.+46     	; 0x988 <follow_path+0x1e4>
     95a:	ea 81       	ldd	r30, Y+2	; 0x02
     95c:	fb 81       	ldd	r31, Y+3	; 0x03
     95e:	83 85       	ldd	r24, Z+11	; 0x0b
     960:	88 23       	and	r24, r24
     962:	49 f0       	breq	.+18     	; 0x976 <follow_path+0x1d2>
     964:	83 e0       	ldi	r24, 0x03	; 3
     966:	90 e0       	ldi	r25, 0x00	; 0
     968:	0f c0       	rjmp	.+30     	; 0x988 <follow_path+0x1e4>
     96a:	81 e0       	ldi	r24, 0x01	; 1
     96c:	90 e0       	ldi	r25, 0x00	; 0
     96e:	0c c0       	rjmp	.+24     	; 0x988 <follow_path+0x1e4>
     970:	80 e0       	ldi	r24, 0x00	; 0
     972:	90 e0       	ldi	r25, 0x00	; 0
     974:	09 c0       	rjmp	.+18     	; 0x988 <follow_path+0x1e4>
     976:	84 e0       	ldi	r24, 0x04	; 4
     978:	90 e0       	ldi	r25, 0x00	; 0
     97a:	06 c0       	rjmp	.+12     	; 0x988 <follow_path+0x1e4>
     97c:	48 30       	cpi	r20, 0x08	; 8
     97e:	09 f0       	breq	.+2      	; 0x982 <follow_path+0x1de>
     980:	47 cf       	rjmp	.-370    	; 0x810 <follow_path+0x6c>
     982:	98 e0       	ldi	r25, 0x08	; 8
     984:	4b e0       	ldi	r20, 0x0B	; 11
     986:	c8 cf       	rjmp	.-112    	; 0x918 <follow_path+0x174>
     988:	cd b7       	in	r28, 0x3d	; 61
     98a:	de b7       	in	r29, 0x3e	; 62
     98c:	eb e0       	ldi	r30, 0x0B	; 11
     98e:	48 c7       	rjmp	.+3728   	; 0x1820 <__epilogue_restores__+0xe>

00000990 <pf_mount>:
     990:	a4 e2       	ldi	r26, 0x24	; 36
     992:	b0 e0       	ldi	r27, 0x00	; 0
     994:	ed ec       	ldi	r30, 0xCD	; 205
     996:	f4 e0       	ldi	r31, 0x04	; 4
     998:	20 c7       	rjmp	.+3648   	; 0x17da <__prologue_saves__>
     99a:	10 92 6d 00 	sts	0x006D, r1	; 0x80006d <FatFs+0x1>
     99e:	10 92 6c 00 	sts	0x006C, r1	; 0x80006c <FatFs>
     9a2:	00 97       	sbiw	r24, 0x00	; 0
     9a4:	09 f4       	brne	.+2      	; 0x9a8 <pf_mount+0x18>
     9a6:	cc c0       	rjmp	.+408    	; 0xb40 <pf_mount+0x1b0>
     9a8:	1c 01       	movw	r2, r24
     9aa:	22 d4       	rcall	.+2116   	; 0x11f0 <disk_initialize>
     9ac:	80 fd       	sbrc	r24, 0
     9ae:	cb c0       	rjmp	.+406    	; 0xb46 <pf_mount+0x1b6>
     9b0:	40 e0       	ldi	r20, 0x00	; 0
     9b2:	50 e0       	ldi	r21, 0x00	; 0
     9b4:	ba 01       	movw	r22, r20
     9b6:	ce 01       	movw	r24, r28
     9b8:	01 96       	adiw	r24, 0x01	; 1
     9ba:	b8 de       	rcall	.-656    	; 0x72c <check_fs>
     9bc:	81 30       	cpi	r24, 0x01	; 1
     9be:	f9 f4       	brne	.+62     	; 0x9fe <pf_mount+0x6e>
     9c0:	00 e1       	ldi	r16, 0x10	; 16
     9c2:	10 e0       	ldi	r17, 0x00	; 0
     9c4:	2e eb       	ldi	r18, 0xBE	; 190
     9c6:	31 e0       	ldi	r19, 0x01	; 1
     9c8:	40 e0       	ldi	r20, 0x00	; 0
     9ca:	50 e0       	ldi	r21, 0x00	; 0
     9cc:	ba 01       	movw	r22, r20
     9ce:	ce 01       	movw	r24, r28
     9d0:	01 96       	adiw	r24, 0x01	; 1
     9d2:	9c d4       	rcall	.+2360   	; 0x130c <disk_readp>
     9d4:	89 2b       	or	r24, r25
     9d6:	19 f0       	breq	.+6      	; 0x9de <pf_mount+0x4e>
     9d8:	81 e0       	ldi	r24, 0x01	; 1
     9da:	90 e0       	ldi	r25, 0x00	; 0
     9dc:	b6 c0       	rjmp	.+364    	; 0xb4a <pf_mount+0x1ba>
     9de:	8d 81       	ldd	r24, Y+5	; 0x05
     9e0:	81 11       	cpse	r24, r1
     9e2:	03 c0       	rjmp	.+6      	; 0x9ea <pf_mount+0x5a>
     9e4:	87 e0       	ldi	r24, 0x07	; 7
     9e6:	90 e0       	ldi	r25, 0x00	; 0
     9e8:	b0 c0       	rjmp	.+352    	; 0xb4a <pf_mount+0x1ba>
     9ea:	49 84       	ldd	r4, Y+9	; 0x09
     9ec:	5a 84       	ldd	r5, Y+10	; 0x0a
     9ee:	6b 84       	ldd	r6, Y+11	; 0x0b
     9f0:	7c 84       	ldd	r7, Y+12	; 0x0c
     9f2:	b3 01       	movw	r22, r6
     9f4:	a2 01       	movw	r20, r4
     9f6:	ce 01       	movw	r24, r28
     9f8:	01 96       	adiw	r24, 0x01	; 1
     9fa:	98 de       	rcall	.-720    	; 0x72c <check_fs>
     9fc:	03 c0       	rjmp	.+6      	; 0xa04 <pf_mount+0x74>
     9fe:	41 2c       	mov	r4, r1
     a00:	51 2c       	mov	r5, r1
     a02:	32 01       	movw	r6, r4
     a04:	83 30       	cpi	r24, 0x03	; 3
     a06:	41 f3       	breq	.-48     	; 0x9d8 <pf_mount+0x48>
     a08:	81 11       	cpse	r24, r1
     a0a:	ec cf       	rjmp	.-40     	; 0x9e4 <pf_mount+0x54>
     a0c:	04 e2       	ldi	r16, 0x24	; 36
     a0e:	10 e0       	ldi	r17, 0x00	; 0
     a10:	2d e0       	ldi	r18, 0x0D	; 13
     a12:	30 e0       	ldi	r19, 0x00	; 0
     a14:	b3 01       	movw	r22, r6
     a16:	a2 01       	movw	r20, r4
     a18:	ce 01       	movw	r24, r28
     a1a:	01 96       	adiw	r24, 0x01	; 1
     a1c:	77 d4       	rcall	.+2286   	; 0x130c <disk_readp>
     a1e:	89 2b       	or	r24, r25
     a20:	d9 f6       	brne	.-74     	; 0x9d8 <pf_mount+0x48>
     a22:	6a 85       	ldd	r22, Y+10	; 0x0a
     a24:	7b 85       	ldd	r23, Y+11	; 0x0b
     a26:	80 e0       	ldi	r24, 0x00	; 0
     a28:	90 e0       	ldi	r25, 0x00	; 0
     a2a:	61 15       	cp	r22, r1
     a2c:	71 05       	cpc	r23, r1
     a2e:	81 05       	cpc	r24, r1
     a30:	91 05       	cpc	r25, r1
     a32:	21 f4       	brne	.+8      	; 0xa3c <pf_mount+0xac>
     a34:	68 8d       	ldd	r22, Y+24	; 0x18
     a36:	79 8d       	ldd	r23, Y+25	; 0x19
     a38:	8a 8d       	ldd	r24, Y+26	; 0x1a
     a3a:	9b 8d       	ldd	r25, Y+27	; 0x1b
     a3c:	2c 81       	ldd	r18, Y+4	; 0x04
     a3e:	30 e0       	ldi	r19, 0x00	; 0
     a40:	40 e0       	ldi	r20, 0x00	; 0
     a42:	50 e0       	ldi	r21, 0x00	; 0
     a44:	af d6       	rcall	.+3422   	; 0x17a4 <__umulsidi3>
     a46:	49 01       	movw	r8, r18
     a48:	5a 01       	movw	r10, r20
     a4a:	0a 81       	ldd	r16, Y+2	; 0x02
     a4c:	1b 81       	ldd	r17, Y+3	; 0x03
     a4e:	20 e0       	ldi	r18, 0x00	; 0
     a50:	30 e0       	ldi	r19, 0x00	; 0
     a52:	73 01       	movw	r14, r6
     a54:	62 01       	movw	r12, r4
     a56:	c0 0e       	add	r12, r16
     a58:	d1 1e       	adc	r13, r17
     a5a:	e2 1e       	adc	r14, r18
     a5c:	f3 1e       	adc	r15, r19
     a5e:	f1 01       	movw	r30, r2
     a60:	c2 86       	std	Z+10, r12	; 0x0a
     a62:	d3 86       	std	Z+11, r13	; 0x0b
     a64:	e4 86       	std	Z+12, r14	; 0x0c
     a66:	f5 86       	std	Z+13, r15	; 0x0d
     a68:	49 81       	ldd	r20, Y+1	; 0x01
     a6a:	42 83       	std	Z+2, r20	; 0x02
     a6c:	4d 80       	ldd	r4, Y+5	; 0x05
     a6e:	5e 80       	ldd	r5, Y+6	; 0x06
     a70:	55 82       	std	Z+5, r5	; 0x05
     a72:	44 82       	std	Z+4, r4	; 0x04
     a74:	8f 81       	ldd	r24, Y+7	; 0x07
     a76:	98 85       	ldd	r25, Y+8	; 0x08
     a78:	a0 e0       	ldi	r26, 0x00	; 0
     a7a:	b0 e0       	ldi	r27, 0x00	; 0
     a7c:	00 97       	sbiw	r24, 0x00	; 0
     a7e:	a1 05       	cpc	r26, r1
     a80:	b1 05       	cpc	r27, r1
     a82:	21 f4       	brne	.+8      	; 0xa8c <pf_mount+0xfc>
     a84:	8c 89       	ldd	r24, Y+20	; 0x14
     a86:	9d 89       	ldd	r25, Y+21	; 0x15
     a88:	ae 89       	ldd	r26, Y+22	; 0x16
     a8a:	bf 89       	ldd	r27, Y+23	; 0x17
     a8c:	54 e0       	ldi	r21, 0x04	; 4
     a8e:	56 94       	lsr	r5
     a90:	47 94       	ror	r4
     a92:	5a 95       	dec	r21
     a94:	e1 f7       	brne	.-8      	; 0xa8e <pf_mount+0xfe>
     a96:	61 2c       	mov	r6, r1
     a98:	71 2c       	mov	r7, r1
     a9a:	80 1b       	sub	r24, r16
     a9c:	91 0b       	sbc	r25, r17
     a9e:	a2 0b       	sbc	r26, r18
     aa0:	b3 0b       	sbc	r27, r19
     aa2:	88 19       	sub	r24, r8
     aa4:	99 09       	sbc	r25, r9
     aa6:	aa 09       	sbc	r26, r10
     aa8:	bb 09       	sbc	r27, r11
     aaa:	bc 01       	movw	r22, r24
     aac:	cd 01       	movw	r24, r26
     aae:	64 19       	sub	r22, r4
     ab0:	75 09       	sbc	r23, r5
     ab2:	86 09       	sbc	r24, r6
     ab4:	97 09       	sbc	r25, r7
     ab6:	24 2f       	mov	r18, r20
     ab8:	30 e0       	ldi	r19, 0x00	; 0
     aba:	40 e0       	ldi	r20, 0x00	; 0
     abc:	50 e0       	ldi	r21, 0x00	; 0
     abe:	4e d6       	rcall	.+3228   	; 0x175c <__udivmodsi4>
     ac0:	da 01       	movw	r26, r20
     ac2:	c9 01       	movw	r24, r18
     ac4:	02 96       	adiw	r24, 0x02	; 2
     ac6:	a1 1d       	adc	r26, r1
     ac8:	b1 1d       	adc	r27, r1
     aca:	f1 01       	movw	r30, r2
     acc:	86 83       	std	Z+6, r24	; 0x06
     ace:	97 83       	std	Z+7, r25	; 0x07
     ad0:	a0 87       	std	Z+8, r26	; 0x08
     ad2:	b1 87       	std	Z+9, r27	; 0x09
     ad4:	87 3f       	cpi	r24, 0xF7	; 247
     ad6:	ff e0       	ldi	r31, 0x0F	; 15
     ad8:	9f 07       	cpc	r25, r31
     ada:	a1 05       	cpc	r26, r1
     adc:	b1 05       	cpc	r27, r1
     ade:	38 f0       	brcs	.+14     	; 0xaee <pf_mount+0x15e>
     ae0:	87 3f       	cpi	r24, 0xF7	; 247
     ae2:	9f 4f       	sbci	r25, 0xFF	; 255
     ae4:	a1 05       	cpc	r26, r1
     ae6:	b1 05       	cpc	r27, r1
     ae8:	20 f0       	brcs	.+8      	; 0xaf2 <pf_mount+0x162>
     aea:	83 e0       	ldi	r24, 0x03	; 3
     aec:	03 c0       	rjmp	.+6      	; 0xaf4 <pf_mount+0x164>
     aee:	81 e0       	ldi	r24, 0x01	; 1
     af0:	01 c0       	rjmp	.+2      	; 0xaf4 <pf_mount+0x164>
     af2:	82 e0       	ldi	r24, 0x02	; 2
     af4:	f1 01       	movw	r30, r2
     af6:	80 83       	st	Z, r24
     af8:	83 30       	cpi	r24, 0x03	; 3
     afa:	29 f4       	brne	.+10     	; 0xb06 <pf_mount+0x176>
     afc:	88 a1       	ldd	r24, Y+32	; 0x20
     afe:	99 a1       	ldd	r25, Y+33	; 0x21
     b00:	aa a1       	ldd	r26, Y+34	; 0x22
     b02:	bb a1       	ldd	r27, Y+35	; 0x23
     b04:	07 c0       	rjmp	.+14     	; 0xb14 <pf_mount+0x184>
     b06:	d5 01       	movw	r26, r10
     b08:	c4 01       	movw	r24, r8
     b0a:	8c 0d       	add	r24, r12
     b0c:	9d 1d       	adc	r25, r13
     b0e:	ae 1d       	adc	r26, r14
     b10:	bf 1d       	adc	r27, r15
     b12:	f1 01       	movw	r30, r2
     b14:	86 87       	std	Z+14, r24	; 0x0e
     b16:	97 87       	std	Z+15, r25	; 0x0f
     b18:	a0 8b       	std	Z+16, r26	; 0x10
     b1a:	b1 8b       	std	Z+17, r27	; 0x11
     b1c:	4c 0c       	add	r4, r12
     b1e:	5d 1c       	adc	r5, r13
     b20:	6e 1c       	adc	r6, r14
     b22:	7f 1c       	adc	r7, r15
     b24:	84 0c       	add	r8, r4
     b26:	95 1c       	adc	r9, r5
     b28:	a6 1c       	adc	r10, r6
     b2a:	b7 1c       	adc	r11, r7
     b2c:	f1 01       	movw	r30, r2
     b2e:	82 8a       	std	Z+18, r8	; 0x12
     b30:	93 8a       	std	Z+19, r9	; 0x13
     b32:	a4 8a       	std	Z+20, r10	; 0x14
     b34:	b5 8a       	std	Z+21, r11	; 0x15
     b36:	11 82       	std	Z+1, r1	; 0x01
     b38:	30 92 6d 00 	sts	0x006D, r3	; 0x80006d <FatFs+0x1>
     b3c:	20 92 6c 00 	sts	0x006C, r2	; 0x80006c <FatFs>
     b40:	80 e0       	ldi	r24, 0x00	; 0
     b42:	90 e0       	ldi	r25, 0x00	; 0
     b44:	02 c0       	rjmp	.+4      	; 0xb4a <pf_mount+0x1ba>
     b46:	82 e0       	ldi	r24, 0x02	; 2
     b48:	90 e0       	ldi	r25, 0x00	; 0
     b4a:	a4 96       	adiw	r28, 0x24	; 36
     b4c:	e2 e1       	ldi	r30, 0x12	; 18
     b4e:	61 c6       	rjmp	.+3266   	; 0x1812 <__epilogue_restores__>

00000b50 <pf_open>:
     b50:	ac e3       	ldi	r26, 0x3C	; 60
     b52:	b0 e0       	ldi	r27, 0x00	; 0
     b54:	ed ea       	ldi	r30, 0xAD	; 173
     b56:	f5 e0       	ldi	r31, 0x05	; 5
     b58:	4e c6       	rjmp	.+3228   	; 0x17f6 <__prologue_saves__+0x1c>
     b5a:	00 91 6c 00 	lds	r16, 0x006C	; 0x80006c <FatFs>
     b5e:	10 91 6d 00 	lds	r17, 0x006D	; 0x80006d <FatFs+0x1>
     b62:	01 15       	cp	r16, r1
     b64:	11 05       	cpc	r17, r1
     b66:	c1 f1       	breq	.+112    	; 0xbd8 <pf_open+0x88>
     b68:	ac 01       	movw	r20, r24
     b6a:	f8 01       	movw	r30, r16
     b6c:	11 82       	std	Z+1, r1	; 0x01
     b6e:	ce 01       	movw	r24, r28
     b70:	c1 96       	adiw	r24, 0x31	; 49
     b72:	9c a3       	std	Y+36, r25	; 0x24
     b74:	8b a3       	std	Y+35, r24	; 0x23
     b76:	be 01       	movw	r22, r28
     b78:	6f 5f       	subi	r22, 0xFF	; 255
     b7a:	7f 4f       	sbci	r23, 0xFF	; 255
     b7c:	40 97       	sbiw	r24, 0x10	; 16
     b7e:	12 de       	rcall	.-988    	; 0x7a4 <follow_path>
     b80:	00 97       	sbiw	r24, 0x00	; 0
     b82:	71 f5       	brne	.+92     	; 0xbe0 <pf_open+0x90>
     b84:	89 81       	ldd	r24, Y+1	; 0x01
     b86:	88 23       	and	r24, r24
     b88:	49 f1       	breq	.+82     	; 0xbdc <pf_open+0x8c>
     b8a:	8c 85       	ldd	r24, Y+12	; 0x0c
     b8c:	84 fd       	sbrc	r24, 4
     b8e:	26 c0       	rjmp	.+76     	; 0xbdc <pf_open+0x8c>
     b90:	8d 89       	ldd	r24, Y+21	; 0x15
     b92:	9e 89       	ldd	r25, Y+22	; 0x16
     b94:	a0 e0       	ldi	r26, 0x00	; 0
     b96:	b0 e0       	ldi	r27, 0x00	; 0
     b98:	dc 01       	movw	r26, r24
     b9a:	99 27       	eor	r25, r25
     b9c:	88 27       	eor	r24, r24
     b9e:	4b 8d       	ldd	r20, Y+27	; 0x1b
     ba0:	5c 8d       	ldd	r21, Y+28	; 0x1c
     ba2:	60 e0       	ldi	r22, 0x00	; 0
     ba4:	70 e0       	ldi	r23, 0x00	; 0
     ba6:	84 2b       	or	r24, r20
     ba8:	95 2b       	or	r25, r21
     baa:	a6 2b       	or	r26, r22
     bac:	b7 2b       	or	r27, r23
     bae:	f8 01       	movw	r30, r16
     bb0:	86 8f       	std	Z+30, r24	; 0x1e
     bb2:	97 8f       	std	Z+31, r25	; 0x1f
     bb4:	a0 a3       	std	Z+32, r26	; 0x20
     bb6:	b1 a3       	std	Z+33, r27	; 0x21
     bb8:	8d 8d       	ldd	r24, Y+29	; 0x1d
     bba:	9e 8d       	ldd	r25, Y+30	; 0x1e
     bbc:	af 8d       	ldd	r26, Y+31	; 0x1f
     bbe:	b8 a1       	ldd	r27, Y+32	; 0x20
     bc0:	82 8f       	std	Z+26, r24	; 0x1a
     bc2:	93 8f       	std	Z+27, r25	; 0x1b
     bc4:	a4 8f       	std	Z+28, r26	; 0x1c
     bc6:	b5 8f       	std	Z+29, r27	; 0x1d
     bc8:	16 8a       	std	Z+22, r1	; 0x16
     bca:	17 8a       	std	Z+23, r1	; 0x17
     bcc:	10 8e       	std	Z+24, r1	; 0x18
     bce:	11 8e       	std	Z+25, r1	; 0x19
     bd0:	81 e0       	ldi	r24, 0x01	; 1
     bd2:	81 83       	std	Z+1, r24	; 0x01
     bd4:	80 e0       	ldi	r24, 0x00	; 0
     bd6:	03 c0       	rjmp	.+6      	; 0xbde <pf_open+0x8e>
     bd8:	86 e0       	ldi	r24, 0x06	; 6
     bda:	01 c0       	rjmp	.+2      	; 0xbde <pf_open+0x8e>
     bdc:	83 e0       	ldi	r24, 0x03	; 3
     bde:	90 e0       	ldi	r25, 0x00	; 0
     be0:	ec 96       	adiw	r28, 0x3c	; 60
     be2:	e4 e0       	ldi	r30, 0x04	; 4
     be4:	24 c6       	rjmp	.+3144   	; 0x182e <__epilogue_restores__+0x1c>

00000be6 <pf_read>:
     be6:	a0 e0       	ldi	r26, 0x00	; 0
     be8:	b0 e0       	ldi	r27, 0x00	; 0
     bea:	e8 ef       	ldi	r30, 0xF8	; 248
     bec:	f5 e0       	ldi	r31, 0x05	; 5
     bee:	f7 c5       	rjmp	.+3054   	; 0x17de <__prologue_saves__+0x4>
     bf0:	4c 01       	movw	r8, r24
     bf2:	6b 01       	movw	r12, r22
     bf4:	5a 01       	movw	r10, r20
     bf6:	c0 91 6c 00 	lds	r28, 0x006C	; 0x80006c <FatFs>
     bfa:	d0 91 6d 00 	lds	r29, 0x006D	; 0x80006d <FatFs+0x1>
     bfe:	fa 01       	movw	r30, r20
     c00:	11 82       	std	Z+1, r1	; 0x01
     c02:	10 82       	st	Z, r1
     c04:	20 97       	sbiw	r28, 0x00	; 0
     c06:	09 f4       	brne	.+2      	; 0xc0a <pf_read+0x24>
     c08:	a0 c0       	rjmp	.+320    	; 0xd4a <pf_read+0x164>
     c0a:	89 81       	ldd	r24, Y+1	; 0x01
     c0c:	80 ff       	sbrs	r24, 0
     c0e:	a0 c0       	rjmp	.+320    	; 0xd50 <pf_read+0x16a>
     c10:	8a 8d       	ldd	r24, Y+26	; 0x1a
     c12:	9b 8d       	ldd	r25, Y+27	; 0x1b
     c14:	ac 8d       	ldd	r26, Y+28	; 0x1c
     c16:	bd 8d       	ldd	r27, Y+29	; 0x1d
     c18:	4e 89       	ldd	r20, Y+22	; 0x16
     c1a:	5f 89       	ldd	r21, Y+23	; 0x17
     c1c:	68 8d       	ldd	r22, Y+24	; 0x18
     c1e:	79 8d       	ldd	r23, Y+25	; 0x19
     c20:	84 1b       	sub	r24, r20
     c22:	95 0b       	sbc	r25, r21
     c24:	a6 0b       	sbc	r26, r22
     c26:	b7 0b       	sbc	r27, r23
     c28:	a6 01       	movw	r20, r12
     c2a:	60 e0       	ldi	r22, 0x00	; 0
     c2c:	70 e0       	ldi	r23, 0x00	; 0
     c2e:	84 17       	cp	r24, r20
     c30:	95 07       	cpc	r25, r21
     c32:	a6 07       	cpc	r26, r22
     c34:	b7 07       	cpc	r27, r23
     c36:	08 f4       	brcc	.+2      	; 0xc3a <pf_read+0x54>
     c38:	6c 01       	movw	r12, r24
     c3a:	34 01       	movw	r6, r8
     c3c:	41 2c       	mov	r4, r1
     c3e:	32 e0       	ldi	r19, 0x02	; 2
     c40:	53 2e       	mov	r5, r19
     c42:	c1 14       	cp	r12, r1
     c44:	d1 04       	cpc	r13, r1
     c46:	09 f4       	brne	.+2      	; 0xc4a <pf_read+0x64>
     c48:	79 c0       	rjmp	.+242    	; 0xd3c <pf_read+0x156>
     c4a:	8e 89       	ldd	r24, Y+22	; 0x16
     c4c:	9f 89       	ldd	r25, Y+23	; 0x17
     c4e:	a8 8d       	ldd	r26, Y+24	; 0x18
     c50:	b9 8d       	ldd	r27, Y+25	; 0x19
     c52:	ac 01       	movw	r20, r24
     c54:	bd 01       	movw	r22, r26
     c56:	51 70       	andi	r21, 0x01	; 1
     c58:	66 27       	eor	r22, r22
     c5a:	77 27       	eor	r23, r23
     c5c:	45 2b       	or	r20, r21
     c5e:	46 2b       	or	r20, r22
     c60:	47 2b       	or	r20, r23
     c62:	d1 f5       	brne	.+116    	; 0xcd8 <pf_read+0xf2>
     c64:	fa 80       	ldd	r15, Y+2	; 0x02
     c66:	fa 94       	dec	r15
     c68:	ac 01       	movw	r20, r24
     c6a:	bd 01       	movw	r22, r26
     c6c:	29 e0       	ldi	r18, 0x09	; 9
     c6e:	76 95       	lsr	r23
     c70:	67 95       	ror	r22
     c72:	57 95       	ror	r21
     c74:	47 95       	ror	r20
     c76:	2a 95       	dec	r18
     c78:	d1 f7       	brne	.-12     	; 0xc6e <pf_read+0x88>
     c7a:	f4 22       	and	r15, r20
     c7c:	c1 f4       	brne	.+48     	; 0xcae <pf_read+0xc8>
     c7e:	89 2b       	or	r24, r25
     c80:	8a 2b       	or	r24, r26
     c82:	8b 2b       	or	r24, r27
     c84:	29 f4       	brne	.+10     	; 0xc90 <pf_read+0xaa>
     c86:	6e 8d       	ldd	r22, Y+30	; 0x1e
     c88:	7f 8d       	ldd	r23, Y+31	; 0x1f
     c8a:	88 a1       	ldd	r24, Y+32	; 0x20
     c8c:	99 a1       	ldd	r25, Y+33	; 0x21
     c8e:	05 c0       	rjmp	.+10     	; 0xc9a <pf_read+0xb4>
     c90:	6a a1       	ldd	r22, Y+34	; 0x22
     c92:	7b a1       	ldd	r23, Y+35	; 0x23
     c94:	8c a1       	ldd	r24, Y+36	; 0x24
     c96:	9d a1       	ldd	r25, Y+37	; 0x25
     c98:	03 dc       	rcall	.-2042   	; 0x4a0 <get_fat>
     c9a:	62 30       	cpi	r22, 0x02	; 2
     c9c:	71 05       	cpc	r23, r1
     c9e:	81 05       	cpc	r24, r1
     ca0:	91 05       	cpc	r25, r1
     ca2:	08 f4       	brcc	.+2      	; 0xca6 <pf_read+0xc0>
     ca4:	4e c0       	rjmp	.+156    	; 0xd42 <pf_read+0x15c>
     ca6:	6a a3       	std	Y+34, r22	; 0x22
     ca8:	7b a3       	std	Y+35, r23	; 0x23
     caa:	8c a3       	std	Y+36, r24	; 0x24
     cac:	9d a3       	std	Y+37, r25	; 0x25
     cae:	6a a1       	ldd	r22, Y+34	; 0x22
     cb0:	7b a1       	ldd	r23, Y+35	; 0x23
     cb2:	8c a1       	ldd	r24, Y+36	; 0x24
     cb4:	9d a1       	ldd	r25, Y+37	; 0x25
     cb6:	6a db       	rcall	.-2348   	; 0x38c <clust2sect>
     cb8:	61 15       	cp	r22, r1
     cba:	71 05       	cpc	r23, r1
     cbc:	81 05       	cpc	r24, r1
     cbe:	91 05       	cpc	r25, r1
     cc0:	09 f4       	brne	.+2      	; 0xcc4 <pf_read+0xde>
     cc2:	3f c0       	rjmp	.+126    	; 0xd42 <pf_read+0x15c>
     cc4:	dc 01       	movw	r26, r24
     cc6:	cb 01       	movw	r24, r22
     cc8:	8f 0d       	add	r24, r15
     cca:	91 1d       	adc	r25, r1
     ccc:	a1 1d       	adc	r26, r1
     cce:	b1 1d       	adc	r27, r1
     cd0:	8e a3       	std	Y+38, r24	; 0x26
     cd2:	9f a3       	std	Y+39, r25	; 0x27
     cd4:	a8 a7       	std	Y+40, r26	; 0x28
     cd6:	b9 a7       	std	Y+41, r27	; 0x29
     cd8:	2e 89       	ldd	r18, Y+22	; 0x16
     cda:	3f 89       	ldd	r19, Y+23	; 0x17
     cdc:	31 70       	andi	r19, 0x01	; 1
     cde:	c2 01       	movw	r24, r4
     ce0:	82 1b       	sub	r24, r18
     ce2:	93 0b       	sbc	r25, r19
     ce4:	76 01       	movw	r14, r12
     ce6:	8c 15       	cp	r24, r12
     ce8:	9d 05       	cpc	r25, r13
     cea:	08 f4       	brcc	.+2      	; 0xcee <pf_read+0x108>
     cec:	7c 01       	movw	r14, r24
     cee:	4e a1       	ldd	r20, Y+38	; 0x26
     cf0:	5f a1       	ldd	r21, Y+39	; 0x27
     cf2:	68 a5       	ldd	r22, Y+40	; 0x28
     cf4:	79 a5       	ldd	r23, Y+41	; 0x29
     cf6:	81 14       	cp	r8, r1
     cf8:	91 04       	cpc	r9, r1
     cfa:	11 f0       	breq	.+4      	; 0xd00 <pf_read+0x11a>
     cfc:	c3 01       	movw	r24, r6
     cfe:	02 c0       	rjmp	.+4      	; 0xd04 <pf_read+0x11e>
     d00:	80 e0       	ldi	r24, 0x00	; 0
     d02:	90 e0       	ldi	r25, 0x00	; 0
     d04:	87 01       	movw	r16, r14
     d06:	02 d3       	rcall	.+1540   	; 0x130c <disk_readp>
     d08:	89 2b       	or	r24, r25
     d0a:	d9 f4       	brne	.+54     	; 0xd42 <pf_read+0x15c>
     d0c:	8e 89       	ldd	r24, Y+22	; 0x16
     d0e:	9f 89       	ldd	r25, Y+23	; 0x17
     d10:	a8 8d       	ldd	r26, Y+24	; 0x18
     d12:	b9 8d       	ldd	r27, Y+25	; 0x19
     d14:	8e 0d       	add	r24, r14
     d16:	9f 1d       	adc	r25, r15
     d18:	a1 1d       	adc	r26, r1
     d1a:	b1 1d       	adc	r27, r1
     d1c:	8e 8b       	std	Y+22, r24	; 0x16
     d1e:	9f 8b       	std	Y+23, r25	; 0x17
     d20:	a8 8f       	std	Y+24, r26	; 0x18
     d22:	b9 8f       	std	Y+25, r27	; 0x19
     d24:	6e 0c       	add	r6, r14
     d26:	7f 1c       	adc	r7, r15
     d28:	ce 18       	sub	r12, r14
     d2a:	df 08       	sbc	r13, r15
     d2c:	f5 01       	movw	r30, r10
     d2e:	80 81       	ld	r24, Z
     d30:	91 81       	ldd	r25, Z+1	; 0x01
     d32:	e8 0e       	add	r14, r24
     d34:	f9 1e       	adc	r15, r25
     d36:	f1 82       	std	Z+1, r15	; 0x01
     d38:	e0 82       	st	Z, r14
     d3a:	83 cf       	rjmp	.-250    	; 0xc42 <pf_read+0x5c>
     d3c:	80 e0       	ldi	r24, 0x00	; 0
     d3e:	90 e0       	ldi	r25, 0x00	; 0
     d40:	09 c0       	rjmp	.+18     	; 0xd54 <pf_read+0x16e>
     d42:	19 82       	std	Y+1, r1	; 0x01
     d44:	81 e0       	ldi	r24, 0x01	; 1
     d46:	90 e0       	ldi	r25, 0x00	; 0
     d48:	05 c0       	rjmp	.+10     	; 0xd54 <pf_read+0x16e>
     d4a:	86 e0       	ldi	r24, 0x06	; 6
     d4c:	90 e0       	ldi	r25, 0x00	; 0
     d4e:	02 c0       	rjmp	.+4      	; 0xd54 <pf_read+0x16e>
     d50:	85 e0       	ldi	r24, 0x05	; 5
     d52:	90 e0       	ldi	r25, 0x00	; 0
     d54:	cd b7       	in	r28, 0x3d	; 61
     d56:	de b7       	in	r29, 0x3e	; 62
     d58:	e0 e1       	ldi	r30, 0x10	; 16
     d5a:	5d c5       	rjmp	.+2746   	; 0x1816 <__epilogue_restores__+0x4>

00000d5c <pf_lseek>:
     d5c:	a4 e0       	ldi	r26, 0x04	; 4
     d5e:	b0 e0       	ldi	r27, 0x00	; 0
     d60:	e3 eb       	ldi	r30, 0xB3	; 179
     d62:	f6 e0       	ldi	r31, 0x06	; 6
     d64:	3c c5       	rjmp	.+2680   	; 0x17de <__prologue_saves__+0x4>
     d66:	36 2f       	mov	r19, r22
     d68:	27 2f       	mov	r18, r23
     d6a:	00 91 6c 00 	lds	r16, 0x006C	; 0x80006c <FatFs>
     d6e:	10 91 6d 00 	lds	r17, 0x006D	; 0x80006d <FatFs+0x1>
     d72:	01 15       	cp	r16, r1
     d74:	11 05       	cpc	r17, r1
     d76:	09 f4       	brne	.+2      	; 0xd7a <pf_lseek+0x1e>
     d78:	e3 c0       	rjmp	.+454    	; 0xf40 <pf_lseek+0x1e4>
     d7a:	d8 01       	movw	r26, r16
     d7c:	11 96       	adiw	r26, 0x01	; 1
     d7e:	4c 91       	ld	r20, X
     d80:	11 97       	sbiw	r26, 0x01	; 1
     d82:	40 ff       	sbrs	r20, 0
     d84:	e0 c0       	rjmp	.+448    	; 0xf46 <pf_lseek+0x1ea>
     d86:	5a 96       	adiw	r26, 0x1a	; 26
     d88:	4d 91       	ld	r20, X+
     d8a:	5d 91       	ld	r21, X+
     d8c:	6d 91       	ld	r22, X+
     d8e:	7c 91       	ld	r23, X
     d90:	5d 97       	sbiw	r26, 0x1d	; 29
     d92:	c3 2e       	mov	r12, r19
     d94:	d2 2e       	mov	r13, r18
     d96:	7c 01       	movw	r14, r24
     d98:	4c 15       	cp	r20, r12
     d9a:	5d 05       	cpc	r21, r13
     d9c:	6e 05       	cpc	r22, r14
     d9e:	7f 05       	cpc	r23, r15
     da0:	10 f4       	brcc	.+4      	; 0xda6 <pf_lseek+0x4a>
     da2:	6a 01       	movw	r12, r20
     da4:	7b 01       	movw	r14, r22
     da6:	f8 01       	movw	r30, r16
     da8:	46 88       	ldd	r4, Z+22	; 0x16
     daa:	57 88       	ldd	r5, Z+23	; 0x17
     dac:	60 8c       	ldd	r6, Z+24	; 0x18
     dae:	71 8c       	ldd	r7, Z+25	; 0x19
     db0:	16 8a       	std	Z+22, r1	; 0x16
     db2:	17 8a       	std	Z+23, r1	; 0x17
     db4:	10 8e       	std	Z+24, r1	; 0x18
     db6:	11 8e       	std	Z+25, r1	; 0x19
     db8:	c1 14       	cp	r12, r1
     dba:	d1 04       	cpc	r13, r1
     dbc:	e1 04       	cpc	r14, r1
     dbe:	f1 04       	cpc	r15, r1
     dc0:	09 f4       	brne	.+2      	; 0xdc4 <pf_lseek+0x68>
     dc2:	c4 c0       	rjmp	.+392    	; 0xf4c <pf_lseek+0x1f0>
     dc4:	82 80       	ldd	r8, Z+2	; 0x02
     dc6:	91 2c       	mov	r9, r1
     dc8:	a1 2c       	mov	r10, r1
     dca:	b1 2c       	mov	r11, r1
     dcc:	39 e0       	ldi	r19, 0x09	; 9
     dce:	88 0c       	add	r8, r8
     dd0:	99 1c       	adc	r9, r9
     dd2:	aa 1c       	adc	r10, r10
     dd4:	bb 1c       	adc	r11, r11
     dd6:	3a 95       	dec	r19
     dd8:	d1 f7       	brne	.-12     	; 0xdce <pf_lseek+0x72>
     dda:	41 14       	cp	r4, r1
     ddc:	51 04       	cpc	r5, r1
     dde:	61 04       	cpc	r6, r1
     de0:	71 04       	cpc	r7, r1
     de2:	e9 f1       	breq	.+122    	; 0xe5e <pf_lseek+0x102>
     de4:	b1 e0       	ldi	r27, 0x01	; 1
     de6:	4b 1a       	sub	r4, r27
     de8:	51 08       	sbc	r5, r1
     dea:	61 08       	sbc	r6, r1
     dec:	71 08       	sbc	r7, r1
     dee:	c7 01       	movw	r24, r14
     df0:	b6 01       	movw	r22, r12
     df2:	61 50       	subi	r22, 0x01	; 1
     df4:	71 09       	sbc	r23, r1
     df6:	81 09       	sbc	r24, r1
     df8:	91 09       	sbc	r25, r1
     dfa:	a5 01       	movw	r20, r10
     dfc:	94 01       	movw	r18, r8
     dfe:	ae d4       	rcall	.+2396   	; 0x175c <__udivmodsi4>
     e00:	29 83       	std	Y+1, r18	; 0x01
     e02:	3a 83       	std	Y+2, r19	; 0x02
     e04:	4b 83       	std	Y+3, r20	; 0x03
     e06:	5c 83       	std	Y+4, r21	; 0x04
     e08:	c3 01       	movw	r24, r6
     e0a:	b2 01       	movw	r22, r4
     e0c:	a5 01       	movw	r20, r10
     e0e:	94 01       	movw	r18, r8
     e10:	a5 d4       	rcall	.+2378   	; 0x175c <__udivmodsi4>
     e12:	89 81       	ldd	r24, Y+1	; 0x01
     e14:	9a 81       	ldd	r25, Y+2	; 0x02
     e16:	ab 81       	ldd	r26, Y+3	; 0x03
     e18:	bc 81       	ldd	r27, Y+4	; 0x04
     e1a:	82 17       	cp	r24, r18
     e1c:	93 07       	cpc	r25, r19
     e1e:	a4 07       	cpc	r26, r20
     e20:	b5 07       	cpc	r27, r21
     e22:	e8 f0       	brcs	.+58     	; 0xe5e <pf_lseek+0x102>
     e24:	88 27       	eor	r24, r24
     e26:	99 27       	eor	r25, r25
     e28:	dc 01       	movw	r26, r24
     e2a:	88 19       	sub	r24, r8
     e2c:	99 09       	sbc	r25, r9
     e2e:	aa 09       	sbc	r26, r10
     e30:	bb 09       	sbc	r27, r11
     e32:	48 22       	and	r4, r24
     e34:	59 22       	and	r5, r25
     e36:	6a 22       	and	r6, r26
     e38:	7b 22       	and	r7, r27
     e3a:	d8 01       	movw	r26, r16
     e3c:	56 96       	adiw	r26, 0x16	; 22
     e3e:	4d 92       	st	X+, r4
     e40:	5d 92       	st	X+, r5
     e42:	6d 92       	st	X+, r6
     e44:	7c 92       	st	X, r7
     e46:	59 97       	sbiw	r26, 0x19	; 25
     e48:	c4 18       	sub	r12, r4
     e4a:	d5 08       	sbc	r13, r5
     e4c:	e6 08       	sbc	r14, r6
     e4e:	f7 08       	sbc	r15, r7
     e50:	92 96       	adiw	r26, 0x22	; 34
     e52:	6d 91       	ld	r22, X+
     e54:	7d 91       	ld	r23, X+
     e56:	8d 91       	ld	r24, X+
     e58:	9c 91       	ld	r25, X
     e5a:	95 97       	sbiw	r26, 0x25	; 37
     e5c:	30 c0       	rjmp	.+96     	; 0xebe <pf_lseek+0x162>
     e5e:	f8 01       	movw	r30, r16
     e60:	66 8d       	ldd	r22, Z+30	; 0x1e
     e62:	77 8d       	ldd	r23, Z+31	; 0x1f
     e64:	80 a1       	ldd	r24, Z+32	; 0x20
     e66:	91 a1       	ldd	r25, Z+33	; 0x21
     e68:	62 a3       	std	Z+34, r22	; 0x22
     e6a:	73 a3       	std	Z+35, r23	; 0x23
     e6c:	84 a3       	std	Z+36, r24	; 0x24
     e6e:	95 a3       	std	Z+37, r25	; 0x25
     e70:	26 c0       	rjmp	.+76     	; 0xebe <pf_lseek+0x162>
     e72:	16 db       	rcall	.-2516   	; 0x4a0 <get_fat>
     e74:	62 30       	cpi	r22, 0x02	; 2
     e76:	71 05       	cpc	r23, r1
     e78:	81 05       	cpc	r24, r1
     e7a:	91 05       	cpc	r25, r1
     e7c:	08 f4       	brcc	.+2      	; 0xe80 <pf_lseek+0x124>
     e7e:	5a c0       	rjmp	.+180    	; 0xf34 <pf_lseek+0x1d8>
     e80:	f8 01       	movw	r30, r16
     e82:	46 80       	ldd	r4, Z+6	; 0x06
     e84:	57 80       	ldd	r5, Z+7	; 0x07
     e86:	60 84       	ldd	r6, Z+8	; 0x08
     e88:	71 84       	ldd	r7, Z+9	; 0x09
     e8a:	64 15       	cp	r22, r4
     e8c:	75 05       	cpc	r23, r5
     e8e:	86 05       	cpc	r24, r6
     e90:	97 05       	cpc	r25, r7
     e92:	08 f0       	brcs	.+2      	; 0xe96 <pf_lseek+0x13a>
     e94:	4f c0       	rjmp	.+158    	; 0xf34 <pf_lseek+0x1d8>
     e96:	62 a3       	std	Z+34, r22	; 0x22
     e98:	73 a3       	std	Z+35, r23	; 0x23
     e9a:	84 a3       	std	Z+36, r24	; 0x24
     e9c:	95 a3       	std	Z+37, r25	; 0x25
     e9e:	46 88       	ldd	r4, Z+22	; 0x16
     ea0:	57 88       	ldd	r5, Z+23	; 0x17
     ea2:	60 8c       	ldd	r6, Z+24	; 0x18
     ea4:	71 8c       	ldd	r7, Z+25	; 0x19
     ea6:	48 0c       	add	r4, r8
     ea8:	59 1c       	adc	r5, r9
     eaa:	6a 1c       	adc	r6, r10
     eac:	7b 1c       	adc	r7, r11
     eae:	46 8a       	std	Z+22, r4	; 0x16
     eb0:	57 8a       	std	Z+23, r5	; 0x17
     eb2:	60 8e       	std	Z+24, r6	; 0x18
     eb4:	71 8e       	std	Z+25, r7	; 0x19
     eb6:	c8 18       	sub	r12, r8
     eb8:	d9 08       	sbc	r13, r9
     eba:	ea 08       	sbc	r14, r10
     ebc:	fb 08       	sbc	r15, r11
     ebe:	8c 14       	cp	r8, r12
     ec0:	9d 04       	cpc	r9, r13
     ec2:	ae 04       	cpc	r10, r14
     ec4:	bf 04       	cpc	r11, r15
     ec6:	a8 f2       	brcs	.-86     	; 0xe72 <pf_lseek+0x116>
     ec8:	d8 01       	movw	r26, r16
     eca:	56 96       	adiw	r26, 0x16	; 22
     ecc:	8d 90       	ld	r8, X+
     ece:	9d 90       	ld	r9, X+
     ed0:	ad 90       	ld	r10, X+
     ed2:	bc 90       	ld	r11, X
     ed4:	59 97       	sbiw	r26, 0x19	; 25
     ed6:	c8 0c       	add	r12, r8
     ed8:	d9 1c       	adc	r13, r9
     eda:	ea 1c       	adc	r14, r10
     edc:	fb 1c       	adc	r15, r11
     ede:	f8 01       	movw	r30, r16
     ee0:	c6 8a       	std	Z+22, r12	; 0x16
     ee2:	d7 8a       	std	Z+23, r13	; 0x17
     ee4:	e0 8e       	std	Z+24, r14	; 0x18
     ee6:	f1 8e       	std	Z+25, r15	; 0x19
     ee8:	51 da       	rcall	.-2910   	; 0x38c <clust2sect>
     eea:	61 15       	cp	r22, r1
     eec:	71 05       	cpc	r23, r1
     eee:	81 05       	cpc	r24, r1
     ef0:	91 05       	cpc	r25, r1
     ef2:	01 f1       	breq	.+64     	; 0xf34 <pf_lseek+0x1d8>
     ef4:	29 e0       	ldi	r18, 0x09	; 9
     ef6:	f6 94       	lsr	r15
     ef8:	e7 94       	ror	r14
     efa:	d7 94       	ror	r13
     efc:	c7 94       	ror	r12
     efe:	2a 95       	dec	r18
     f00:	d1 f7       	brne	.-12     	; 0xef6 <pf_lseek+0x19a>
     f02:	d8 01       	movw	r26, r16
     f04:	12 96       	adiw	r26, 0x02	; 2
     f06:	2c 91       	ld	r18, X
     f08:	30 e0       	ldi	r19, 0x00	; 0
     f0a:	21 50       	subi	r18, 0x01	; 1
     f0c:	31 09       	sbc	r19, r1
     f0e:	49 01       	movw	r8, r18
     f10:	aa 24       	eor	r10, r10
     f12:	97 fc       	sbrc	r9, 7
     f14:	a0 94       	com	r10
     f16:	ba 2c       	mov	r11, r10
     f18:	c8 20       	and	r12, r8
     f1a:	d9 20       	and	r13, r9
     f1c:	ea 20       	and	r14, r10
     f1e:	fb 20       	and	r15, r11
     f20:	c6 0e       	add	r12, r22
     f22:	d7 1e       	adc	r13, r23
     f24:	e8 1e       	adc	r14, r24
     f26:	f9 1e       	adc	r15, r25
     f28:	f8 01       	movw	r30, r16
     f2a:	c6 a2       	std	Z+38, r12	; 0x26
     f2c:	d7 a2       	std	Z+39, r13	; 0x27
     f2e:	e0 a6       	std	Z+40, r14	; 0x28
     f30:	f1 a6       	std	Z+41, r15	; 0x29
     f32:	0c c0       	rjmp	.+24     	; 0xf4c <pf_lseek+0x1f0>
     f34:	d8 01       	movw	r26, r16
     f36:	11 96       	adiw	r26, 0x01	; 1
     f38:	1c 92       	st	X, r1
     f3a:	81 e0       	ldi	r24, 0x01	; 1
     f3c:	90 e0       	ldi	r25, 0x00	; 0
     f3e:	08 c0       	rjmp	.+16     	; 0xf50 <pf_lseek+0x1f4>
     f40:	86 e0       	ldi	r24, 0x06	; 6
     f42:	90 e0       	ldi	r25, 0x00	; 0
     f44:	05 c0       	rjmp	.+10     	; 0xf50 <pf_lseek+0x1f4>
     f46:	85 e0       	ldi	r24, 0x05	; 5
     f48:	90 e0       	ldi	r25, 0x00	; 0
     f4a:	02 c0       	rjmp	.+4      	; 0xf50 <pf_lseek+0x1f4>
     f4c:	80 e0       	ldi	r24, 0x00	; 0
     f4e:	90 e0       	ldi	r25, 0x00	; 0
     f50:	24 96       	adiw	r28, 0x04	; 4
     f52:	e0 e1       	ldi	r30, 0x10	; 16
     f54:	60 c4       	rjmp	.+2240   	; 0x1816 <__epilogue_restores__+0x4>

00000f56 <pf_opendir>:
     f56:	ac e2       	ldi	r26, 0x2C	; 44
     f58:	b0 e0       	ldi	r27, 0x00	; 0
     f5a:	e0 eb       	ldi	r30, 0xB0	; 176
     f5c:	f7 e0       	ldi	r31, 0x07	; 7
     f5e:	4b c4       	rjmp	.+2198   	; 0x17f6 <__prologue_saves__+0x1c>
     f60:	20 91 6c 00 	lds	r18, 0x006C	; 0x80006c <FatFs>
     f64:	30 91 6d 00 	lds	r19, 0x006D	; 0x80006d <FatFs+0x1>
     f68:	23 2b       	or	r18, r19
     f6a:	89 f1       	breq	.+98     	; 0xfce <pf_opendir+0x78>
     f6c:	ab 01       	movw	r20, r22
     f6e:	8c 01       	movw	r16, r24
     f70:	ce 01       	movw	r24, r28
     f72:	81 96       	adiw	r24, 0x21	; 33
     f74:	f8 01       	movw	r30, r16
     f76:	93 83       	std	Z+3, r25	; 0x03
     f78:	82 83       	std	Z+2, r24	; 0x02
     f7a:	be 01       	movw	r22, r28
     f7c:	6f 5f       	subi	r22, 0xFF	; 255
     f7e:	7f 4f       	sbci	r23, 0xFF	; 255
     f80:	c8 01       	movw	r24, r16
     f82:	10 dc       	rcall	.-2016   	; 0x7a4 <follow_path>
     f84:	00 97       	sbiw	r24, 0x00	; 0
     f86:	f9 f4       	brne	.+62     	; 0xfc6 <pf_opendir+0x70>
     f88:	89 81       	ldd	r24, Y+1	; 0x01
     f8a:	88 23       	and	r24, r24
     f8c:	d1 f0       	breq	.+52     	; 0xfc2 <pf_opendir+0x6c>
     f8e:	8c 85       	ldd	r24, Y+12	; 0x0c
     f90:	84 fd       	sbrc	r24, 4
     f92:	03 c0       	rjmp	.+6      	; 0xf9a <pf_opendir+0x44>
     f94:	84 e0       	ldi	r24, 0x04	; 4
     f96:	90 e0       	ldi	r25, 0x00	; 0
     f98:	1c c0       	rjmp	.+56     	; 0xfd2 <pf_opendir+0x7c>
     f9a:	8d 89       	ldd	r24, Y+21	; 0x15
     f9c:	9e 89       	ldd	r25, Y+22	; 0x16
     f9e:	a0 e0       	ldi	r26, 0x00	; 0
     fa0:	b0 e0       	ldi	r27, 0x00	; 0
     fa2:	dc 01       	movw	r26, r24
     fa4:	99 27       	eor	r25, r25
     fa6:	88 27       	eor	r24, r24
     fa8:	4b 8d       	ldd	r20, Y+27	; 0x1b
     faa:	5c 8d       	ldd	r21, Y+28	; 0x1c
     fac:	60 e0       	ldi	r22, 0x00	; 0
     fae:	70 e0       	ldi	r23, 0x00	; 0
     fb0:	84 2b       	or	r24, r20
     fb2:	95 2b       	or	r25, r21
     fb4:	a6 2b       	or	r26, r22
     fb6:	b7 2b       	or	r27, r23
     fb8:	f8 01       	movw	r30, r16
     fba:	84 83       	std	Z+4, r24	; 0x04
     fbc:	95 83       	std	Z+5, r25	; 0x05
     fbe:	a6 83       	std	Z+6, r26	; 0x06
     fc0:	b7 83       	std	Z+7, r27	; 0x07
     fc2:	c8 01       	movw	r24, r16
     fc4:	23 da       	rcall	.-3002   	; 0x40c <dir_rewind>
     fc6:	83 30       	cpi	r24, 0x03	; 3
     fc8:	91 05       	cpc	r25, r1
     fca:	19 f4       	brne	.+6      	; 0xfd2 <pf_opendir+0x7c>
     fcc:	e3 cf       	rjmp	.-58     	; 0xf94 <pf_opendir+0x3e>
     fce:	86 e0       	ldi	r24, 0x06	; 6
     fd0:	90 e0       	ldi	r25, 0x00	; 0
     fd2:	ac 96       	adiw	r28, 0x2c	; 44
     fd4:	e4 e0       	ldi	r30, 0x04	; 4
     fd6:	2b c4       	rjmp	.+2134   	; 0x182e <__epilogue_restores__+0x1c>

00000fd8 <pf_readdir>:
     fd8:	ac e2       	ldi	r26, 0x2C	; 44
     fda:	b0 e0       	ldi	r27, 0x00	; 0
     fdc:	e1 ef       	ldi	r30, 0xF1	; 241
     fde:	f7 e0       	ldi	r31, 0x07	; 7
     fe0:	06 c4       	rjmp	.+2060   	; 0x17ee <__prologue_saves__+0x14>
     fe2:	20 91 6c 00 	lds	r18, 0x006C	; 0x80006c <FatFs>
     fe6:	30 91 6d 00 	lds	r19, 0x006D	; 0x80006d <FatFs+0x1>
     fea:	23 2b       	or	r18, r19
     fec:	09 f4       	brne	.+2      	; 0xff0 <pf_readdir+0x18>
     fee:	b7 c0       	rjmp	.+366    	; 0x115e <pf_readdir+0x186>
     ff0:	6b 01       	movw	r12, r22
     ff2:	7c 01       	movw	r14, r24
     ff4:	ce 01       	movw	r24, r28
     ff6:	81 96       	adiw	r24, 0x21	; 33
     ff8:	d7 01       	movw	r26, r14
     ffa:	13 96       	adiw	r26, 0x03	; 3
     ffc:	9c 93       	st	X, r25
     ffe:	8e 93       	st	-X, r24
    1000:	12 97       	sbiw	r26, 0x02	; 2
    1002:	61 15       	cp	r22, r1
    1004:	71 05       	cpc	r23, r1
    1006:	19 f4       	brne	.+6      	; 0x100e <pf_readdir+0x36>
    1008:	c7 01       	movw	r24, r14
    100a:	00 da       	rcall	.-3072   	; 0x40c <dir_rewind>
    100c:	b8 c0       	rjmp	.+368    	; 0x117e <pf_readdir+0x1a6>
    100e:	23 e0       	ldi	r18, 0x03	; 3
    1010:	30 e0       	ldi	r19, 0x00	; 0
    1012:	d7 01       	movw	r26, r14
    1014:	1c 96       	adiw	r26, 0x0c	; 12
    1016:	4d 91       	ld	r20, X+
    1018:	5d 91       	ld	r21, X+
    101a:	6d 91       	ld	r22, X+
    101c:	7c 91       	ld	r23, X
    101e:	1f 97       	sbiw	r26, 0x0f	; 15
    1020:	41 15       	cp	r20, r1
    1022:	51 05       	cpc	r21, r1
    1024:	61 05       	cpc	r22, r1
    1026:	71 05       	cpc	r23, r1
    1028:	19 f1       	breq	.+70     	; 0x1070 <pf_readdir+0x98>
    102a:	f7 01       	movw	r30, r14
    102c:	20 81       	ld	r18, Z
    102e:	31 81       	ldd	r19, Z+1	; 0x01
    1030:	2f 70       	andi	r18, 0x0F	; 15
    1032:	33 27       	eor	r19, r19
    1034:	85 e0       	ldi	r24, 0x05	; 5
    1036:	22 0f       	add	r18, r18
    1038:	33 1f       	adc	r19, r19
    103a:	8a 95       	dec	r24
    103c:	e1 f7       	brne	.-8      	; 0x1036 <pf_readdir+0x5e>
    103e:	00 e2       	ldi	r16, 0x20	; 32
    1040:	10 e0       	ldi	r17, 0x00	; 0
    1042:	ce 01       	movw	r24, r28
    1044:	01 96       	adiw	r24, 0x01	; 1
    1046:	62 d1       	rcall	.+708    	; 0x130c <disk_readp>
    1048:	89 2b       	or	r24, r25
    104a:	09 f0       	breq	.+2      	; 0x104e <pf_readdir+0x76>
    104c:	8b c0       	rjmp	.+278    	; 0x1164 <pf_readdir+0x18c>
    104e:	89 81       	ldd	r24, Y+1	; 0x01
    1050:	88 23       	and	r24, r24
    1052:	09 f4       	brne	.+2      	; 0x1056 <pf_readdir+0x7e>
    1054:	8a c0       	rjmp	.+276    	; 0x116a <pf_readdir+0x192>
    1056:	9c 85       	ldd	r25, Y+12	; 0x0c
    1058:	85 3e       	cpi	r24, 0xE5	; 229
    105a:	21 f0       	breq	.+8      	; 0x1064 <pf_readdir+0x8c>
    105c:	8e 32       	cpi	r24, 0x2E	; 46
    105e:	11 f0       	breq	.+4      	; 0x1064 <pf_readdir+0x8c>
    1060:	93 ff       	sbrs	r25, 3
    1062:	13 c0       	rjmp	.+38     	; 0x108a <pf_readdir+0xb2>
    1064:	c7 01       	movw	r24, r14
    1066:	f5 da       	rcall	.-2582   	; 0x652 <dir_next>
    1068:	9c 01       	movw	r18, r24
    106a:	00 97       	sbiw	r24, 0x00	; 0
    106c:	91 f2       	breq	.-92     	; 0x1012 <pf_readdir+0x3a>
    106e:	7f c0       	rjmp	.+254    	; 0x116e <pf_readdir+0x196>
    1070:	c9 01       	movw	r24, r18
    1072:	21 15       	cp	r18, r1
    1074:	31 05       	cpc	r19, r1
    1076:	49 f0       	breq	.+18     	; 0x108a <pf_readdir+0xb2>
    1078:	f7 01       	movw	r30, r14
    107a:	14 86       	std	Z+12, r1	; 0x0c
    107c:	15 86       	std	Z+13, r1	; 0x0d
    107e:	16 86       	std	Z+14, r1	; 0x0e
    1080:	17 86       	std	Z+15, r1	; 0x0f
    1082:	23 30       	cpi	r18, 0x03	; 3
    1084:	31 05       	cpc	r19, r1
    1086:	09 f0       	breq	.+2      	; 0x108a <pf_readdir+0xb2>
    1088:	74 c0       	rjmp	.+232    	; 0x1172 <pf_readdir+0x19a>
    108a:	86 01       	movw	r16, r12
    108c:	07 5f       	subi	r16, 0xF7	; 247
    108e:	1f 4f       	sbci	r17, 0xFF	; 255
    1090:	d7 01       	movw	r26, r14
    1092:	1c 96       	adiw	r26, 0x0c	; 12
    1094:	4d 91       	ld	r20, X+
    1096:	5d 91       	ld	r21, X+
    1098:	6d 91       	ld	r22, X+
    109a:	7c 91       	ld	r23, X
    109c:	1f 97       	sbiw	r26, 0x0f	; 15
    109e:	45 2b       	or	r20, r21
    10a0:	46 2b       	or	r20, r22
    10a2:	47 2b       	or	r20, r23
    10a4:	09 f4       	brne	.+2      	; 0x10a8 <pf_readdir+0xd0>
    10a6:	4a c0       	rjmp	.+148    	; 0x113c <pf_readdir+0x164>
    10a8:	9e 01       	movw	r18, r28
    10aa:	2f 5f       	subi	r18, 0xFF	; 255
    10ac:	3f 4f       	sbci	r19, 0xFF	; 255
    10ae:	f6 01       	movw	r30, r12
    10b0:	71 96       	adiw	r30, 0x11	; 17
    10b2:	d9 01       	movw	r26, r18
    10b4:	8d 91       	ld	r24, X+
    10b6:	9d 01       	movw	r18, r26
    10b8:	80 32       	cpi	r24, 0x20	; 32
    10ba:	71 f0       	breq	.+28     	; 0x10d8 <pf_readdir+0x100>
    10bc:	85 30       	cpi	r24, 0x05	; 5
    10be:	09 f4       	brne	.+2      	; 0x10c2 <pf_readdir+0xea>
    10c0:	85 ee       	ldi	r24, 0xE5	; 229
    10c2:	0f 5f       	subi	r16, 0xFF	; 255
    10c4:	1f 4f       	sbci	r17, 0xFF	; 255
    10c6:	a8 01       	movw	r20, r16
    10c8:	41 50       	subi	r20, 0x01	; 1
    10ca:	51 09       	sbc	r21, r1
    10cc:	da 01       	movw	r26, r20
    10ce:	8c 93       	st	X, r24
    10d0:	0e 17       	cp	r16, r30
    10d2:	1f 07       	cpc	r17, r31
    10d4:	71 f7       	brne	.-36     	; 0x10b2 <pf_readdir+0xda>
    10d6:	01 c0       	rjmp	.+2      	; 0x10da <pf_readdir+0x102>
    10d8:	f8 01       	movw	r30, r16
    10da:	89 85       	ldd	r24, Y+9	; 0x09
    10dc:	80 32       	cpi	r24, 0x20	; 32
    10de:	99 f0       	breq	.+38     	; 0x1106 <pf_readdir+0x12e>
    10e0:	9e e2       	ldi	r25, 0x2E	; 46
    10e2:	90 83       	st	Z, r25
    10e4:	9f 01       	movw	r18, r30
    10e6:	2e 5f       	subi	r18, 0xFE	; 254
    10e8:	3f 4f       	sbci	r19, 0xFF	; 255
    10ea:	81 83       	std	Z+1, r24	; 0x01
    10ec:	8a 85       	ldd	r24, Y+10	; 0x0a
    10ee:	80 32       	cpi	r24, 0x20	; 32
    10f0:	31 f0       	breq	.+12     	; 0x10fe <pf_readdir+0x126>
    10f2:	2f 5f       	subi	r18, 0xFF	; 255
    10f4:	3f 4f       	sbci	r19, 0xFF	; 255
    10f6:	82 83       	std	Z+2, r24	; 0x02
    10f8:	8b 85       	ldd	r24, Y+11	; 0x0b
    10fa:	80 32       	cpi	r24, 0x20	; 32
    10fc:	11 f4       	brne	.+4      	; 0x1102 <pf_readdir+0x12a>
    10fe:	f9 01       	movw	r30, r18
    1100:	02 c0       	rjmp	.+4      	; 0x1106 <pf_readdir+0x12e>
    1102:	83 83       	std	Z+3, r24	; 0x03
    1104:	34 96       	adiw	r30, 0x04	; 4
    1106:	8c 85       	ldd	r24, Y+12	; 0x0c
    1108:	d6 01       	movw	r26, r12
    110a:	18 96       	adiw	r26, 0x08	; 8
    110c:	8c 93       	st	X, r24
    110e:	18 97       	sbiw	r26, 0x08	; 8
    1110:	4d 8d       	ldd	r20, Y+29	; 0x1d
    1112:	5e 8d       	ldd	r21, Y+30	; 0x1e
    1114:	6f 8d       	ldd	r22, Y+31	; 0x1f
    1116:	78 a1       	ldd	r23, Y+32	; 0x20
    1118:	4d 93       	st	X+, r20
    111a:	5d 93       	st	X+, r21
    111c:	6d 93       	st	X+, r22
    111e:	7c 93       	st	X, r23
    1120:	13 97       	sbiw	r26, 0x03	; 3
    1122:	89 8d       	ldd	r24, Y+25	; 0x19
    1124:	9a 8d       	ldd	r25, Y+26	; 0x1a
    1126:	15 96       	adiw	r26, 0x05	; 5
    1128:	9c 93       	st	X, r25
    112a:	8e 93       	st	-X, r24
    112c:	14 97       	sbiw	r26, 0x04	; 4
    112e:	8f 89       	ldd	r24, Y+23	; 0x17
    1130:	98 8d       	ldd	r25, Y+24	; 0x18
    1132:	17 96       	adiw	r26, 0x07	; 7
    1134:	9c 93       	st	X, r25
    1136:	8e 93       	st	-X, r24
    1138:	16 97       	sbiw	r26, 0x06	; 6
    113a:	8f 01       	movw	r16, r30
    113c:	f8 01       	movw	r30, r16
    113e:	10 82       	st	Z, r1
    1140:	c7 01       	movw	r24, r14
    1142:	87 da       	rcall	.-2802   	; 0x652 <dir_next>
    1144:	83 30       	cpi	r24, 0x03	; 3
    1146:	91 05       	cpc	r25, r1
    1148:	d1 f4       	brne	.+52     	; 0x117e <pf_readdir+0x1a6>
    114a:	d7 01       	movw	r26, r14
    114c:	1c 96       	adiw	r26, 0x0c	; 12
    114e:	1d 92       	st	X+, r1
    1150:	1d 92       	st	X+, r1
    1152:	1d 92       	st	X+, r1
    1154:	1c 92       	st	X, r1
    1156:	1f 97       	sbiw	r26, 0x0f	; 15
    1158:	80 e0       	ldi	r24, 0x00	; 0
    115a:	90 e0       	ldi	r25, 0x00	; 0
    115c:	10 c0       	rjmp	.+32     	; 0x117e <pf_readdir+0x1a6>
    115e:	86 e0       	ldi	r24, 0x06	; 6
    1160:	90 e0       	ldi	r25, 0x00	; 0
    1162:	0d c0       	rjmp	.+26     	; 0x117e <pf_readdir+0x1a6>
    1164:	21 e0       	ldi	r18, 0x01	; 1
    1166:	30 e0       	ldi	r19, 0x00	; 0
    1168:	02 c0       	rjmp	.+4      	; 0x116e <pf_readdir+0x196>
    116a:	23 e0       	ldi	r18, 0x03	; 3
    116c:	30 e0       	ldi	r19, 0x00	; 0
    116e:	c9 01       	movw	r24, r18
    1170:	83 cf       	rjmp	.-250    	; 0x1078 <pf_readdir+0xa0>
    1172:	23 2b       	or	r18, r19
    1174:	21 f4       	brne	.+8      	; 0x117e <pf_readdir+0x1a6>
    1176:	86 01       	movw	r16, r12
    1178:	07 5f       	subi	r16, 0xF7	; 247
    117a:	1f 4f       	sbci	r17, 0xFF	; 255
    117c:	df cf       	rjmp	.-66     	; 0x113c <pf_readdir+0x164>
    117e:	ac 96       	adiw	r28, 0x2c	; 44
    1180:	e8 e0       	ldi	r30, 0x08	; 8
    1182:	51 c3       	rjmp	.+1698   	; 0x1826 <__epilogue_restores__+0x14>

00001184 <send_cmd>:
    1184:	ff 92       	push	r15
    1186:	0f 93       	push	r16
    1188:	1f 93       	push	r17
    118a:	cf 93       	push	r28
    118c:	df 93       	push	r29
    118e:	c8 2f       	mov	r28, r24
    1190:	d4 2f       	mov	r29, r20
    1192:	15 2f       	mov	r17, r21
    1194:	06 2f       	mov	r16, r22
    1196:	f7 2e       	mov	r15, r23
    1198:	87 ff       	sbrs	r24, 7
    119a:	08 c0       	rjmp	.+16     	; 0x11ac <send_cmd+0x28>
    119c:	40 e0       	ldi	r20, 0x00	; 0
    119e:	50 e0       	ldi	r21, 0x00	; 0
    11a0:	ba 01       	movw	r22, r20
    11a2:	87 e7       	ldi	r24, 0x77	; 119
    11a4:	ef df       	rcall	.-34     	; 0x1184 <send_cmd>
    11a6:	82 30       	cpi	r24, 0x02	; 2
    11a8:	f8 f4       	brcc	.+62     	; 0x11e8 <send_cmd+0x64>
    11aa:	cf 77       	andi	r28, 0x7F	; 127
    11ac:	6e d7       	rcall	.+3804   	; 0x208a <__TEXT_REGION_LENGTH__+0x8a>
    11ae:	6f d7       	rcall	.+3806   	; 0x208e <__TEXT_REGION_LENGTH__+0x8e>
    11b0:	6a d7       	rcall	.+3796   	; 0x2086 <__TEXT_REGION_LENGTH__+0x86>
    11b2:	6d d7       	rcall	.+3802   	; 0x208e <__TEXT_REGION_LENGTH__+0x8e>
    11b4:	8c 2f       	mov	r24, r28
    11b6:	7f d7       	rcall	.+3838   	; 0x20b6 <__TEXT_REGION_LENGTH__+0xb6>
    11b8:	8f 2d       	mov	r24, r15
    11ba:	7d d7       	rcall	.+3834   	; 0x20b6 <__TEXT_REGION_LENGTH__+0xb6>
    11bc:	80 2f       	mov	r24, r16
    11be:	7b d7       	rcall	.+3830   	; 0x20b6 <__TEXT_REGION_LENGTH__+0xb6>
    11c0:	81 2f       	mov	r24, r17
    11c2:	79 d7       	rcall	.+3826   	; 0x20b6 <__TEXT_REGION_LENGTH__+0xb6>
    11c4:	8d 2f       	mov	r24, r29
    11c6:	77 d7       	rcall	.+3822   	; 0x20b6 <__TEXT_REGION_LENGTH__+0xb6>
    11c8:	c0 34       	cpi	r28, 0x40	; 64
    11ca:	21 f0       	breq	.+8      	; 0x11d4 <send_cmd+0x50>
    11cc:	c8 34       	cpi	r28, 0x48	; 72
    11ce:	21 f4       	brne	.+8      	; 0x11d8 <send_cmd+0x54>
    11d0:	87 e8       	ldi	r24, 0x87	; 135
    11d2:	03 c0       	rjmp	.+6      	; 0x11da <send_cmd+0x56>
    11d4:	85 e9       	ldi	r24, 0x95	; 149
    11d6:	01 c0       	rjmp	.+2      	; 0x11da <send_cmd+0x56>
    11d8:	81 e0       	ldi	r24, 0x01	; 1
    11da:	6d d7       	rcall	.+3802   	; 0x20b6 <__TEXT_REGION_LENGTH__+0xb6>
    11dc:	ca e0       	ldi	r28, 0x0A	; 10
    11de:	57 d7       	rcall	.+3758   	; 0x208e <__TEXT_REGION_LENGTH__+0x8e>
    11e0:	87 ff       	sbrs	r24, 7
    11e2:	02 c0       	rjmp	.+4      	; 0x11e8 <send_cmd+0x64>
    11e4:	c1 50       	subi	r28, 0x01	; 1
    11e6:	d9 f7       	brne	.-10     	; 0x11de <send_cmd+0x5a>
    11e8:	cd b7       	in	r28, 0x3d	; 61
    11ea:	de b7       	in	r29, 0x3e	; 62
    11ec:	e5 e0       	ldi	r30, 0x05	; 5
    11ee:	1e c3       	rjmp	.+1596   	; 0x182c <__epilogue_restores__+0x1a>

000011f0 <disk_initialize>:
    11f0:	a4 e0       	ldi	r26, 0x04	; 4
    11f2:	b0 e0       	ldi	r27, 0x00	; 0
    11f4:	ed ef       	ldi	r30, 0xFD	; 253
    11f6:	f8 e0       	ldi	r31, 0x08	; 8
    11f8:	fb c2       	rjmp	.+1526   	; 0x17f0 <__prologue_saves__+0x16>
    11fa:	40 d7       	rcall	.+3712   	; 0x207c <__TEXT_REGION_LENGTH__+0x7c>
    11fc:	0a e0       	ldi	r16, 0x0A	; 10
    11fe:	10 e0       	ldi	r17, 0x00	; 0
    1200:	46 d7       	rcall	.+3724   	; 0x208e <__TEXT_REGION_LENGTH__+0x8e>
    1202:	01 50       	subi	r16, 0x01	; 1
    1204:	11 09       	sbc	r17, r1
    1206:	e1 f7       	brne	.-8      	; 0x1200 <disk_initialize+0x10>
    1208:	3e d7       	rcall	.+3708   	; 0x2086 <__TEXT_REGION_LENGTH__+0x86>
    120a:	08 e5       	ldi	r16, 0x58	; 88
    120c:	12 e0       	ldi	r17, 0x02	; 2
    120e:	3f d7       	rcall	.+3710   	; 0x208e <__TEXT_REGION_LENGTH__+0x8e>
    1210:	01 50       	subi	r16, 0x01	; 1
    1212:	11 09       	sbc	r17, r1
    1214:	e1 f7       	brne	.-8      	; 0x120e <disk_initialize+0x1e>
    1216:	40 e0       	ldi	r20, 0x00	; 0
    1218:	50 e0       	ldi	r21, 0x00	; 0
    121a:	ba 01       	movw	r22, r20
    121c:	80 e4       	ldi	r24, 0x40	; 64
    121e:	b2 df       	rcall	.-156    	; 0x1184 <send_cmd>
    1220:	81 30       	cpi	r24, 0x01	; 1
    1222:	09 f0       	breq	.+2      	; 0x1226 <disk_initialize+0x36>
    1224:	6e c0       	rjmp	.+220    	; 0x1302 <disk_initialize+0x112>
    1226:	4a ea       	ldi	r20, 0xAA	; 170
    1228:	51 e0       	ldi	r21, 0x01	; 1
    122a:	60 e0       	ldi	r22, 0x00	; 0
    122c:	70 e0       	ldi	r23, 0x00	; 0
    122e:	88 e4       	ldi	r24, 0x48	; 72
    1230:	a9 df       	rcall	.-174    	; 0x1184 <send_cmd>
    1232:	81 30       	cpi	r24, 0x01	; 1
    1234:	31 f5       	brne	.+76     	; 0x1282 <disk_initialize+0x92>
    1236:	8e 01       	movw	r16, r28
    1238:	0f 5f       	subi	r16, 0xFF	; 255
    123a:	1f 4f       	sbci	r17, 0xFF	; 255
    123c:	78 01       	movw	r14, r16
    123e:	24 e0       	ldi	r18, 0x04	; 4
    1240:	d2 2e       	mov	r13, r18
    1242:	d0 0e       	add	r13, r16
    1244:	24 d7       	rcall	.+3656   	; 0x208e <__TEXT_REGION_LENGTH__+0x8e>
    1246:	f7 01       	movw	r30, r14
    1248:	81 93       	st	Z+, r24
    124a:	7f 01       	movw	r14, r30
    124c:	de 12       	cpse	r13, r30
    124e:	fa cf       	rjmp	.-12     	; 0x1244 <disk_initialize+0x54>
    1250:	8b 81       	ldd	r24, Y+3	; 0x03
    1252:	81 30       	cpi	r24, 0x01	; 1
    1254:	09 f0       	breq	.+2      	; 0x1258 <disk_initialize+0x68>
    1256:	55 c0       	rjmp	.+170    	; 0x1302 <disk_initialize+0x112>
    1258:	8c 81       	ldd	r24, Y+4	; 0x04
    125a:	8a 3a       	cpi	r24, 0xAA	; 170
    125c:	09 f0       	breq	.+2      	; 0x1260 <disk_initialize+0x70>
    125e:	51 c0       	rjmp	.+162    	; 0x1302 <disk_initialize+0x112>
    1260:	98 ea       	ldi	r25, 0xA8	; 168
    1262:	e9 2e       	mov	r14, r25
    1264:	91 e6       	ldi	r25, 0x61	; 97
    1266:	f9 2e       	mov	r15, r25
    1268:	40 e0       	ldi	r20, 0x00	; 0
    126a:	50 e0       	ldi	r21, 0x00	; 0
    126c:	60 e0       	ldi	r22, 0x00	; 0
    126e:	70 e4       	ldi	r23, 0x40	; 64
    1270:	89 ee       	ldi	r24, 0xE9	; 233
    1272:	88 df       	rcall	.-240    	; 0x1184 <send_cmd>
    1274:	88 23       	and	r24, r24
    1276:	09 f1       	breq	.+66     	; 0x12ba <disk_initialize+0xca>
    1278:	f1 e0       	ldi	r31, 0x01	; 1
    127a:	ef 1a       	sub	r14, r31
    127c:	f1 08       	sbc	r15, r1
    127e:	a1 f7       	brne	.-24     	; 0x1268 <disk_initialize+0x78>
    1280:	40 c0       	rjmp	.+128    	; 0x1302 <disk_initialize+0x112>
    1282:	40 e0       	ldi	r20, 0x00	; 0
    1284:	50 e0       	ldi	r21, 0x00	; 0
    1286:	ba 01       	movw	r22, r20
    1288:	89 ee       	ldi	r24, 0xE9	; 233
    128a:	7c df       	rcall	.-264    	; 0x1184 <send_cmd>
    128c:	82 30       	cpi	r24, 0x02	; 2
    128e:	18 f0       	brcs	.+6      	; 0x1296 <disk_initialize+0xa6>
    1290:	11 e0       	ldi	r17, 0x01	; 1
    1292:	01 e4       	ldi	r16, 0x41	; 65
    1294:	02 c0       	rjmp	.+4      	; 0x129a <disk_initialize+0xaa>
    1296:	12 e0       	ldi	r17, 0x02	; 2
    1298:	09 ee       	ldi	r16, 0xE9	; 233
    129a:	88 ea       	ldi	r24, 0xA8	; 168
    129c:	e8 2e       	mov	r14, r24
    129e:	81 e6       	ldi	r24, 0x61	; 97
    12a0:	f8 2e       	mov	r15, r24
    12a2:	40 e0       	ldi	r20, 0x00	; 0
    12a4:	50 e0       	ldi	r21, 0x00	; 0
    12a6:	ba 01       	movw	r22, r20
    12a8:	80 2f       	mov	r24, r16
    12aa:	6c df       	rcall	.-296    	; 0x1184 <send_cmd>
    12ac:	88 23       	and	r24, r24
    12ae:	09 f1       	breq	.+66     	; 0x12f2 <disk_initialize+0x102>
    12b0:	f1 e0       	ldi	r31, 0x01	; 1
    12b2:	ef 1a       	sub	r14, r31
    12b4:	f1 08       	sbc	r15, r1
    12b6:	a9 f7       	brne	.-22     	; 0x12a2 <disk_initialize+0xb2>
    12b8:	24 c0       	rjmp	.+72     	; 0x1302 <disk_initialize+0x112>
    12ba:	40 e0       	ldi	r20, 0x00	; 0
    12bc:	50 e0       	ldi	r21, 0x00	; 0
    12be:	ba 01       	movw	r22, r20
    12c0:	8a e7       	ldi	r24, 0x7A	; 122
    12c2:	60 df       	rcall	.-320    	; 0x1184 <send_cmd>
    12c4:	81 11       	cpse	r24, r1
    12c6:	1d c0       	rjmp	.+58     	; 0x1302 <disk_initialize+0x112>
    12c8:	e2 d6       	rcall	.+3524   	; 0x208e <__TEXT_REGION_LENGTH__+0x8e>
    12ca:	f8 01       	movw	r30, r16
    12cc:	81 93       	st	Z+, r24
    12ce:	8f 01       	movw	r16, r30
    12d0:	de 12       	cpse	r13, r30
    12d2:	fa cf       	rjmp	.-12     	; 0x12c8 <disk_initialize+0xd8>
    12d4:	89 81       	ldd	r24, Y+1	; 0x01
    12d6:	86 fd       	sbrc	r24, 6
    12d8:	02 c0       	rjmp	.+4      	; 0x12de <disk_initialize+0xee>
    12da:	14 e0       	ldi	r17, 0x04	; 4
    12dc:	01 c0       	rjmp	.+2      	; 0x12e0 <disk_initialize+0xf0>
    12de:	1c e0       	ldi	r17, 0x0C	; 12
    12e0:	10 93 c3 01 	sts	0x01C3, r17	; 0x8001c3 <CardType>
    12e4:	d2 d6       	rcall	.+3492   	; 0x208a <__TEXT_REGION_LENGTH__+0x8a>
    12e6:	d3 d6       	rcall	.+3494   	; 0x208e <__TEXT_REGION_LENGTH__+0x8e>
    12e8:	81 e0       	ldi	r24, 0x01	; 1
    12ea:	11 23       	and	r17, r17
    12ec:	61 f0       	breq	.+24     	; 0x1306 <disk_initialize+0x116>
    12ee:	80 e0       	ldi	r24, 0x00	; 0
    12f0:	0a c0       	rjmp	.+20     	; 0x1306 <disk_initialize+0x116>
    12f2:	40 e0       	ldi	r20, 0x00	; 0
    12f4:	52 e0       	ldi	r21, 0x02	; 2
    12f6:	60 e0       	ldi	r22, 0x00	; 0
    12f8:	70 e0       	ldi	r23, 0x00	; 0
    12fa:	80 e5       	ldi	r24, 0x50	; 80
    12fc:	43 df       	rcall	.-378    	; 0x1184 <send_cmd>
    12fe:	88 23       	and	r24, r24
    1300:	79 f3       	breq	.-34     	; 0x12e0 <disk_initialize+0xf0>
    1302:	10 e0       	ldi	r17, 0x00	; 0
    1304:	ed cf       	rjmp	.-38     	; 0x12e0 <disk_initialize+0xf0>
    1306:	24 96       	adiw	r28, 0x04	; 4
    1308:	e7 e0       	ldi	r30, 0x07	; 7
    130a:	8e c2       	rjmp	.+1308   	; 0x1828 <__epilogue_restores__+0x16>

0000130c <disk_readp>:
    130c:	a0 e0       	ldi	r26, 0x00	; 0
    130e:	b0 e0       	ldi	r27, 0x00	; 0
    1310:	eb e8       	ldi	r30, 0x8B	; 139
    1312:	f9 e0       	ldi	r31, 0x09	; 9
    1314:	6c c2       	rjmp	.+1240   	; 0x17ee <__prologue_saves__+0x14>
    1316:	7c 01       	movw	r14, r24
    1318:	69 01       	movw	r12, r18
    131a:	80 91 c3 01 	lds	r24, 0x01C3	; 0x8001c3 <CardType>
    131e:	83 fd       	sbrc	r24, 3
    1320:	07 c0       	rjmp	.+14     	; 0x1330 <disk_readp+0x24>
    1322:	89 e0       	ldi	r24, 0x09	; 9
    1324:	44 0f       	add	r20, r20
    1326:	55 1f       	adc	r21, r21
    1328:	66 1f       	adc	r22, r22
    132a:	77 1f       	adc	r23, r23
    132c:	8a 95       	dec	r24
    132e:	d1 f7       	brne	.-12     	; 0x1324 <disk_readp+0x18>
    1330:	81 e5       	ldi	r24, 0x51	; 81
    1332:	28 df       	rcall	.-432    	; 0x1184 <send_cmd>
    1334:	88 23       	and	r24, r24
    1336:	19 f0       	breq	.+6      	; 0x133e <disk_readp+0x32>
    1338:	c1 e0       	ldi	r28, 0x01	; 1
    133a:	d0 e0       	ldi	r29, 0x00	; 0
    133c:	10 c0       	rjmp	.+32     	; 0x135e <disk_readp+0x52>
    133e:	c0 e3       	ldi	r28, 0x30	; 48
    1340:	d5 e7       	ldi	r29, 0x75	; 117
    1342:	a5 d6       	rcall	.+3402   	; 0x208e <__TEXT_REGION_LENGTH__+0x8e>
    1344:	8f 3f       	cpi	r24, 0xFF	; 255
    1346:	19 f4       	brne	.+6      	; 0x134e <disk_readp+0x42>
    1348:	21 97       	sbiw	r28, 0x01	; 1
    134a:	d9 f7       	brne	.-10     	; 0x1342 <disk_readp+0x36>
    134c:	f5 cf       	rjmp	.-22     	; 0x1338 <disk_readp+0x2c>
    134e:	8e 3f       	cpi	r24, 0xFE	; 254
    1350:	99 f7       	brne	.-26     	; 0x1338 <disk_readp+0x2c>
    1352:	a8 01       	movw	r20, r16
    1354:	b6 01       	movw	r22, r12
    1356:	c7 01       	movw	r24, r14
    1358:	bb d6       	rcall	.+3446   	; 0x20d0 <__TEXT_REGION_LENGTH__+0xd0>
    135a:	c0 e0       	ldi	r28, 0x00	; 0
    135c:	d0 e0       	ldi	r29, 0x00	; 0
    135e:	95 d6       	rcall	.+3370   	; 0x208a <__TEXT_REGION_LENGTH__+0x8a>
    1360:	96 d6       	rcall	.+3372   	; 0x208e <__TEXT_REGION_LENGTH__+0x8e>
    1362:	ce 01       	movw	r24, r28
    1364:	cd b7       	in	r28, 0x3d	; 61
    1366:	de b7       	in	r29, 0x3e	; 62
    1368:	e8 e0       	ldi	r30, 0x08	; 8
    136a:	5d c2       	rjmp	.+1210   	; 0x1826 <__epilogue_restores__+0x14>

0000136c <main>:

/*-----------------------------------------------------------------------*/
/* Main                                                                  */

int main (void)
{
    136c:	a0 e0       	ldi	r26, 0x00	; 0
    136e:	b0 e0       	ldi	r27, 0x00	; 0
    1370:	eb eb       	ldi	r30, 0xBB	; 187
    1372:	f9 e0       	ldi	r31, 0x09	; 9
    1374:	38 c2       	rjmp	.+1136   	; 0x17e6 <__prologue_saves__+0xc>
	FRESULT res;
	char *dir;
	BYTE org_osc = OSCCAL;
    1376:	81 b7       	in	r24, 0x31	; 49


	MCUSR = 0;
    1378:	14 be       	out	0x34, r1	; 52
	WDTCR = _BV(WDE) | 0b110;	/* Enable WDT reset in timeout of 1s */
    137a:	8e e0       	ldi	r24, 0x0E	; 14
    137c:	81 bd       	out	0x21, r24	; 33

	PORTB = 0b001001;		/* Initialize port: - - L L H L L P */
    137e:	89 e0       	ldi	r24, 0x09	; 9
    1380:	88 bb       	out	0x18, r24	; 24
	DDRB  = 0b111110;
    1382:	8e e3       	ldi	r24, 0x3E	; 62
    1384:	87 bb       	out	0x17, r24	; 23

	sei();
    1386:	78 94       	sei
	WDTCR = _BV(WDE) | _BV(WDIE) | 0b101;	/* Set WDT to interrupt mode in timeout of 0.5s */
    1388:	0d e4       	ldi	r16, 0x4D	; 77
	WDTCR = _BV(WDE) | 0b110;				/* Set WDT to reset mode in timeout of 1s */
    138a:	1e e0       	ldi	r17, 0x0E	; 14

    /* Just play the first detected file one time (no repeat) */
    for (;;) {
        if (pf_mount(&Fs) == FR_OK) {	/* Initialize FS */
    138c:	89 e9       	ldi	r24, 0x99	; 153
    138e:	91 e0       	ldi	r25, 0x01	; 1
    1390:	ff da       	rcall	.-2562   	; 0x990 <pf_mount>
    1392:	89 2b       	or	r24, r25
    1394:	49 f0       	breq	.+18     	; 0x13a8 <main+0x3c>
	wdt_reset();
    1396:	a8 95       	wdr
	TCCR0B = 0; TCCR0A = 0;	/* Stop TC0 */
    1398:	13 be       	out	0x33, r1	; 51
    139a:	1a bc       	out	0x2a, r1	; 42
	if (TCCR1) {	/* Stop TC1 if enabled */
    139c:	80 b7       	in	r24, 0x30	; 48
    139e:	88 23       	and	r24, r24
    13a0:	09 f4       	brne	.+2      	; 0x13a4 <main+0x38>
    13a2:	cd c1       	rjmp	.+922    	; 0x173e <main+0x3d2>
    13a4:	c0 e8       	ldi	r28, 0x80	; 128
    13a6:	c1 c1       	rjmp	.+898    	; 0x172a <main+0x3be>
            wdt_reset();
    13a8:	a8 95       	wdr
            //Buff[0] = 0;
            //if (!pf_open("osccal")) pf_read(Buff, 1, &rb);	/* Adjust frequency */
            //OSCCAL = org_osc + Buff[0];
            
            res = pf_opendir(&Dir, dir = "wav");	/* Open sound file directory */
    13aa:	60 e6       	ldi	r22, 0x60	; 96
    13ac:	70 e0       	ldi	r23, 0x00	; 0
    13ae:	88 e8       	ldi	r24, 0x88	; 136
    13b0:	91 e0       	ldi	r25, 0x01	; 1
    13b2:	d1 dd       	rcall	.-1118   	; 0xf56 <pf_opendir>
            if (res == FR_NO_PATH)
    13b4:	84 30       	cpi	r24, 0x04	; 4
    13b6:	91 05       	cpc	r25, r1
    13b8:	41 f4       	brne	.+16     	; 0x13ca <main+0x5e>
                res = pf_opendir(&Dir, dir = "");	/* Open root directory */
    13ba:	68 e6       	ldi	r22, 0x68	; 104
    13bc:	70 e0       	ldi	r23, 0x00	; 0
    13be:	88 e8       	ldi	r24, 0x88	; 136
    13c0:	91 e0       	ldi	r25, 0x01	; 1
    13c2:	c9 dd       	rcall	.-1134   	; 0xf56 <pf_opendir>
    13c4:	c8 e6       	ldi	r28, 0x68	; 104
    13c6:	d0 e0       	ldi	r29, 0x00	; 0
    13c8:	0a c0       	rjmp	.+20     	; 0x13de <main+0x72>
            res = pf_opendir(&Dir, dir = "wav");	/* Open sound file directory */
    13ca:	c0 e6       	ldi	r28, 0x60	; 96
    13cc:	d0 e0       	ldi	r29, 0x00	; 0
    13ce:	07 c0       	rjmp	.+14     	; 0x13de <main+0x72>
            
            while (res == FR_OK) {				/* Repeat in the dir */
                res = pf_readdir(&Dir, 0);			/* Rewind dir */
    13d0:	60 e0       	ldi	r22, 0x00	; 0
    13d2:	70 e0       	ldi	r23, 0x00	; 0
    13d4:	88 e8       	ldi	r24, 0x88	; 136
    13d6:	91 e0       	ldi	r25, 0x01	; 1
    13d8:	ff dd       	rcall	.-1026   	; 0xfd8 <pf_readdir>
                while (res == FR_OK) {				/* Play all wav files in the dir */
    13da:	00 97       	sbiw	r24, 0x00	; 0
    13dc:	59 f0       	breq	.+22     	; 0x13f4 <main+0x88>
            while (res == FR_OK) {				/* Repeat in the dir */
    13de:	89 2b       	or	r24, r25
    13e0:	b9 f3       	breq	.-18     	; 0x13d0 <main+0x64>
    13e2:	d9 cf       	rjmp	.-78     	; 0x1396 <main+0x2a>
                    wdt_reset();
                    res = pf_readdir(&Dir, &Fno);		/* Get a dir entry */
                    if (res || !Fno.fname[0]) break;	/* Break on error or end of dir */
    13e4:	20 91 79 00 	lds	r18, 0x0079	; 0x800079 <Fno+0x9>
    13e8:	22 23       	and	r18, r18
    13ea:	c9 f3       	breq	.-14     	; 0x13de <main+0x72>
                    if (!(Fno.fattrib & (AM_DIR|AM_HID)) && strstr(Fno.fname, ".WAV")) {
    13ec:	80 91 78 00 	lds	r24, 0x0078	; 0x800078 <Fno+0x8>
    13f0:	82 71       	andi	r24, 0x12	; 18
    13f2:	49 f0       	breq	.+18     	; 0x1406 <main+0x9a>
                    wdt_reset();
    13f4:	a8 95       	wdr
                    res = pf_readdir(&Dir, &Fno);		/* Get a dir entry */
    13f6:	60 e7       	ldi	r22, 0x70	; 112
    13f8:	70 e0       	ldi	r23, 0x00	; 0
    13fa:	88 e8       	ldi	r24, 0x88	; 136
    13fc:	91 e0       	ldi	r25, 0x01	; 1
    13fe:	ec dd       	rcall	.-1064   	; 0xfd8 <pf_readdir>
                    if (res || !Fno.fname[0]) break;	/* Break on error or end of dir */
    1400:	00 97       	sbiw	r24, 0x00	; 0
    1402:	81 f3       	breq	.-32     	; 0x13e4 <main+0x78>
    1404:	ec cf       	rjmp	.-40     	; 0x13de <main+0x72>
                    if (!(Fno.fattrib & (AM_DIR|AM_HID)) && strstr(Fno.fname, ".WAV")) {
    1406:	64 e6       	ldi	r22, 0x64	; 100
    1408:	70 e0       	ldi	r23, 0x00	; 0
    140a:	89 e7       	ldi	r24, 0x79	; 121
    140c:	90 e0       	ldi	r25, 0x00	; 0
    140e:	4a d2       	rcall	.+1172   	; 0x18a4 <strstr>
    1410:	89 2b       	or	r24, r25
    1412:	81 f3       	breq	.-32     	; 0x13f4 <main+0x88>
	wdt_reset();
    1414:	a8 95       	wdr
	xsprintf((char*)Buff, PSTR("%s/%s"), dir, fn);
    1416:	89 e7       	ldi	r24, 0x79	; 121
    1418:	90 e0       	ldi	r25, 0x00	; 0
    141a:	9f 93       	push	r25
    141c:	8f 93       	push	r24
    141e:	df 93       	push	r29
    1420:	cf 93       	push	r28
    1422:	8e e1       	ldi	r24, 0x1E	; 30
    1424:	90 e0       	ldi	r25, 0x00	; 0
    1426:	9f 93       	push	r25
    1428:	8f 93       	push	r24
    142a:	88 e8       	ldi	r24, 0x88	; 136
    142c:	90 e0       	ldi	r25, 0x00	; 0
    142e:	9f 93       	push	r25
    1430:	8f 93       	push	r24
    1432:	88 d7       	rcall	.+3856   	; 0x2344 <__TEXT_REGION_LENGTH__+0x344>
	res = pf_open((char*)Buff);		/* Open sound file */
    1434:	88 e8       	ldi	r24, 0x88	; 136
    1436:	90 e0       	ldi	r25, 0x00	; 0
    1438:	8b db       	rcall	.-2282   	; 0xb50 <pf_open>
	if (res == FR_OK) {
    143a:	2d b7       	in	r18, 0x3d	; 61
    143c:	3e b7       	in	r19, 0x3e	; 62
    143e:	28 5f       	subi	r18, 0xF8	; 248
    1440:	3f 4f       	sbci	r19, 0xFF	; 255
    1442:	0f b6       	in	r0, 0x3f	; 63
    1444:	f8 94       	cli
    1446:	3e bf       	out	0x3e, r19	; 62
    1448:	0f be       	out	0x3f, r0	; 63
    144a:	2d bf       	out	0x3d, r18	; 61
    144c:	89 2b       	or	r24, r25
    144e:	09 f0       	breq	.+2      	; 0x1452 <main+0xe6>
    1450:	62 c1       	rjmp	.+708    	; 0x1716 <main+0x3aa>
	if (pf_read(Buff, 12, &rb)) return 1;	/* Load file header (12 bytes) */
    1452:	46 e8       	ldi	r20, 0x86	; 134
    1454:	50 e0       	ldi	r21, 0x00	; 0
    1456:	6c e0       	ldi	r22, 0x0C	; 12
    1458:	70 e0       	ldi	r23, 0x00	; 0
    145a:	88 e8       	ldi	r24, 0x88	; 136
    145c:	90 e0       	ldi	r25, 0x00	; 0
    145e:	c3 db       	rcall	.-2170   	; 0xbe6 <pf_read>
    1460:	89 2b       	or	r24, r25
    1462:	09 f0       	breq	.+2      	; 0x1466 <main+0xfa>
    1464:	5f c1       	rjmp	.+702    	; 0x1724 <main+0x3b8>
	if (rb != 12 || LD_DWORD(Buff+8) != FCC('W','A','V','E')) return 0;
    1466:	80 91 86 00 	lds	r24, 0x0086	; 0x800086 <rb>
    146a:	90 91 87 00 	lds	r25, 0x0087	; 0x800087 <rb+0x1>
    146e:	0c 97       	sbiw	r24, 0x0c	; 12
    1470:	09 f0       	breq	.+2      	; 0x1474 <main+0x108>
    1472:	58 c1       	rjmp	.+688    	; 0x1724 <main+0x3b8>
    1474:	80 91 90 00 	lds	r24, 0x0090	; 0x800090 <Buff+0x8>
    1478:	90 91 91 00 	lds	r25, 0x0091	; 0x800091 <Buff+0x9>
    147c:	a0 91 92 00 	lds	r26, 0x0092	; 0x800092 <Buff+0xa>
    1480:	b0 91 93 00 	lds	r27, 0x0093	; 0x800093 <Buff+0xb>
    1484:	87 35       	cpi	r24, 0x57	; 87
    1486:	91 44       	sbci	r25, 0x41	; 65
    1488:	a6 45       	sbci	r26, 0x56	; 86
    148a:	b5 44       	sbci	r27, 0x45	; 69
    148c:	09 f0       	breq	.+2      	; 0x1490 <main+0x124>
    148e:	4a c1       	rjmp	.+660    	; 0x1724 <main+0x3b8>
    1490:	c0 e0       	ldi	r28, 0x00	; 0
			OCR0A = (BYTE)(F_CPU / 8 / f) - 1;		/* Set sampling interval */
    1492:	80 e8       	ldi	r24, 0x80	; 128
    1494:	88 2e       	mov	r8, r24
    1496:	84 e8       	ldi	r24, 0x84	; 132
    1498:	98 2e       	mov	r9, r24
    149a:	8e e1       	ldi	r24, 0x1E	; 30
    149c:	a8 2e       	mov	r10, r24
    149e:	b1 2c       	mov	r11, r1
		wdt_reset();
    14a0:	a8 95       	wdr
		pf_read(Buff, 8, &rb);			/* Get Chunk ID and size */
    14a2:	46 e8       	ldi	r20, 0x86	; 134
    14a4:	50 e0       	ldi	r21, 0x00	; 0
    14a6:	68 e0       	ldi	r22, 0x08	; 8
    14a8:	70 e0       	ldi	r23, 0x00	; 0
    14aa:	88 e8       	ldi	r24, 0x88	; 136
    14ac:	90 e0       	ldi	r25, 0x00	; 0
    14ae:	9b db       	rcall	.-2250   	; 0xbe6 <pf_read>
		if (rb != 8) return 0;
    14b0:	80 91 86 00 	lds	r24, 0x0086	; 0x800086 <rb>
    14b4:	90 91 87 00 	lds	r25, 0x0087	; 0x800087 <rb+0x1>
    14b8:	08 97       	sbiw	r24, 0x08	; 8
    14ba:	09 f0       	breq	.+2      	; 0x14be <main+0x152>
    14bc:	33 c1       	rjmp	.+614    	; 0x1724 <main+0x3b8>
		sz = LD_DWORD(&Buff[4]);		/* Chunk size */
    14be:	c0 90 8c 00 	lds	r12, 0x008C	; 0x80008c <Buff+0x4>
    14c2:	d0 90 8d 00 	lds	r13, 0x008D	; 0x80008d <Buff+0x5>
    14c6:	e0 90 8e 00 	lds	r14, 0x008E	; 0x80008e <Buff+0x6>
    14ca:	f0 90 8f 00 	lds	r15, 0x008F	; 0x80008f <Buff+0x7>
		switch (LD_DWORD(&Buff[0])) {	/* Switch by chunk ID */
    14ce:	80 91 88 00 	lds	r24, 0x0088	; 0x800088 <Buff>
    14d2:	90 91 89 00 	lds	r25, 0x0089	; 0x800089 <Buff+0x1>
    14d6:	a0 91 8a 00 	lds	r26, 0x008A	; 0x80008a <Buff+0x2>
    14da:	b0 91 8b 00 	lds	r27, 0x008B	; 0x80008b <Buff+0x3>
    14de:	8c 34       	cpi	r24, 0x4C	; 76
    14e0:	69 e4       	ldi	r22, 0x49	; 73
    14e2:	96 07       	cpc	r25, r22
    14e4:	63 e5       	ldi	r22, 0x53	; 83
    14e6:	a6 07       	cpc	r26, r22
    14e8:	64 e5       	ldi	r22, 0x54	; 84
    14ea:	b6 07       	cpc	r27, r22
    14ec:	09 f4       	brne	.+2      	; 0x14f0 <main+0x184>
    14ee:	c5 c0       	rjmp	.+394    	; 0x167a <main+0x30e>
    14f0:	78 f4       	brcc	.+30     	; 0x1510 <main+0x1a4>
    14f2:	86 36       	cpi	r24, 0x66	; 102
    14f4:	3d e6       	ldi	r19, 0x6D	; 109
    14f6:	93 07       	cpc	r25, r19
    14f8:	34 e7       	ldi	r19, 0x74	; 116
    14fa:	a3 07       	cpc	r26, r19
    14fc:	30 e2       	ldi	r19, 0x20	; 32
    14fe:	b3 07       	cpc	r27, r19
    1500:	b9 f0       	breq	.+46     	; 0x1530 <main+0x1c4>
    1502:	84 34       	cpi	r24, 0x44	; 68
    1504:	99 44       	sbci	r25, 0x49	; 73
    1506:	a3 45       	sbci	r26, 0x53	; 83
    1508:	b0 45       	sbci	r27, 0x50	; 80
    150a:	09 f0       	breq	.+2      	; 0x150e <main+0x1a2>
    150c:	0b c1       	rjmp	.+534    	; 0x1724 <main+0x3b8>
    150e:	b5 c0       	rjmp	.+362    	; 0x167a <main+0x30e>
    1510:	84 36       	cpi	r24, 0x64	; 100
    1512:	21 e6       	ldi	r18, 0x61	; 97
    1514:	92 07       	cpc	r25, r18
    1516:	24 e7       	ldi	r18, 0x74	; 116
    1518:	a2 07       	cpc	r26, r18
    151a:	21 e6       	ldi	r18, 0x61	; 97
    151c:	b2 07       	cpc	r27, r18
    151e:	09 f4       	brne	.+2      	; 0x1522 <main+0x1b6>
    1520:	5e c0       	rjmp	.+188    	; 0x15de <main+0x272>
    1522:	86 36       	cpi	r24, 0x66	; 102
    1524:	91 46       	sbci	r25, 0x61	; 97
    1526:	a3 46       	sbci	r26, 0x63	; 99
    1528:	b4 47       	sbci	r27, 0x74	; 116
    152a:	09 f0       	breq	.+2      	; 0x152e <main+0x1c2>
    152c:	fb c0       	rjmp	.+502    	; 0x1724 <main+0x3b8>
    152e:	a5 c0       	rjmp	.+330    	; 0x167a <main+0x30e>
			if (sz & 1) sz++;						/* Align chunk size */
    1530:	c0 fe       	sbrs	r12, 0
    1532:	05 c0       	rjmp	.+10     	; 0x153e <main+0x1d2>
    1534:	6f ef       	ldi	r22, 0xFF	; 255
    1536:	c6 1a       	sub	r12, r22
    1538:	d6 0a       	sbc	r13, r22
    153a:	e6 0a       	sbc	r14, r22
    153c:	f6 0a       	sbc	r15, r22
			if (sz > 100 || sz < 16) return 0;		/* Check chunk size */
    153e:	d7 01       	movw	r26, r14
    1540:	c6 01       	movw	r24, r12
    1542:	40 97       	sbiw	r24, 0x10	; 16
    1544:	a1 09       	sbc	r26, r1
    1546:	b1 09       	sbc	r27, r1
    1548:	85 35       	cpi	r24, 0x55	; 85
    154a:	91 05       	cpc	r25, r1
    154c:	a1 05       	cpc	r26, r1
    154e:	b1 05       	cpc	r27, r1
    1550:	08 f0       	brcs	.+2      	; 0x1554 <main+0x1e8>
    1552:	e8 c0       	rjmp	.+464    	; 0x1724 <main+0x3b8>
			pf_read(Buff, sz, &rb);					/* Get content */
    1554:	46 e8       	ldi	r20, 0x86	; 134
    1556:	50 e0       	ldi	r21, 0x00	; 0
    1558:	b6 01       	movw	r22, r12
    155a:	88 e8       	ldi	r24, 0x88	; 136
    155c:	90 e0       	ldi	r25, 0x00	; 0
    155e:	43 db       	rcall	.-2426   	; 0xbe6 <pf_read>
			if (rb != sz) return 0;
    1560:	80 91 86 00 	lds	r24, 0x0086	; 0x800086 <rb>
    1564:	90 91 87 00 	lds	r25, 0x0087	; 0x800087 <rb+0x1>
    1568:	a0 e0       	ldi	r26, 0x00	; 0
    156a:	b0 e0       	ldi	r27, 0x00	; 0
    156c:	8c 15       	cp	r24, r12
    156e:	9d 05       	cpc	r25, r13
    1570:	ae 05       	cpc	r26, r14
    1572:	bf 05       	cpc	r27, r15
    1574:	09 f0       	breq	.+2      	; 0x1578 <main+0x20c>
    1576:	d6 c0       	rjmp	.+428    	; 0x1724 <main+0x3b8>
			if (Buff[0] != 1) return 0;				/* Check coding type (LPCM) */
    1578:	80 91 88 00 	lds	r24, 0x0088	; 0x800088 <Buff>
    157c:	81 30       	cpi	r24, 0x01	; 1
    157e:	09 f0       	breq	.+2      	; 0x1582 <main+0x216>
    1580:	d1 c0       	rjmp	.+418    	; 0x1724 <main+0x3b8>
			b = Buff[2];
    1582:	c0 91 8a 00 	lds	r28, 0x008A	; 0x80008a <Buff+0x2>
			if (b != 1 && b != 2) return 0;			/* Check channels (1/2) */
    1586:	8f ef       	ldi	r24, 0xFF	; 255
    1588:	8c 0f       	add	r24, r28
    158a:	82 30       	cpi	r24, 0x02	; 2
    158c:	08 f0       	brcs	.+2      	; 0x1590 <main+0x224>
    158e:	ca c0       	rjmp	.+404    	; 0x1724 <main+0x3b8>
			GPIOR0 = al = b;						/* Save channel flag */
    1590:	c1 bb       	out	0x11, r28	; 17
			b = Buff[14];
    1592:	80 91 96 00 	lds	r24, 0x0096	; 0x800096 <Buff+0xe>
			if (b != 8 && b != 16) return 0;		/* Check resolution (8/16 bit) */
    1596:	88 30       	cpi	r24, 0x08	; 8
    1598:	19 f0       	breq	.+6      	; 0x15a0 <main+0x234>
    159a:	80 31       	cpi	r24, 0x10	; 16
    159c:	09 f0       	breq	.+2      	; 0x15a0 <main+0x234>
    159e:	c2 c0       	rjmp	.+388    	; 0x1724 <main+0x3b8>
			GPIOR0 |= b;							/* Save resolution flag */
    15a0:	91 b3       	in	r25, 0x11	; 17
    15a2:	98 2b       	or	r25, r24
    15a4:	91 bb       	out	0x11, r25	; 17
			if (b & 16) al <<= 1;
    15a6:	84 fd       	sbrc	r24, 4
    15a8:	cc 0f       	add	r28, r28
			f = LD_DWORD(&Buff[4]);					/* Check sampling freqency (8k-48k) */
    15aa:	20 91 8c 00 	lds	r18, 0x008C	; 0x80008c <Buff+0x4>
    15ae:	30 91 8d 00 	lds	r19, 0x008D	; 0x80008d <Buff+0x5>
    15b2:	40 91 8e 00 	lds	r20, 0x008E	; 0x80008e <Buff+0x6>
    15b6:	50 91 8f 00 	lds	r21, 0x008F	; 0x80008f <Buff+0x7>
			if (f < 8000 || f > 48000) return 4;
    15ba:	da 01       	movw	r26, r20
    15bc:	c9 01       	movw	r24, r18
    15be:	80 54       	subi	r24, 0x40	; 64
    15c0:	9f 41       	sbci	r25, 0x1F	; 31
    15c2:	a1 09       	sbc	r26, r1
    15c4:	b1 09       	sbc	r27, r1
    15c6:	81 34       	cpi	r24, 0x41	; 65
    15c8:	9c 49       	sbci	r25, 0x9C	; 156
    15ca:	a1 05       	cpc	r26, r1
    15cc:	b1 05       	cpc	r27, r1
    15ce:	08 f0       	brcs	.+2      	; 0x15d2 <main+0x266>
    15d0:	a9 c0       	rjmp	.+338    	; 0x1724 <main+0x3b8>
			OCR0A = (BYTE)(F_CPU / 8 / f) - 1;		/* Set sampling interval */
    15d2:	c5 01       	movw	r24, r10
    15d4:	b4 01       	movw	r22, r8
    15d6:	c2 d0       	rcall	.+388    	; 0x175c <__udivmodsi4>
    15d8:	21 50       	subi	r18, 0x01	; 1
    15da:	29 bd       	out	0x29, r18	; 41
    15dc:	61 cf       	rjmp	.-318    	; 0x14a0 <main+0x134>
			if (!al) return 0;							/* Check if format is valid */
    15de:	cc 23       	and	r28, r28
    15e0:	09 f4       	brne	.+2      	; 0x15e4 <main+0x278>
    15e2:	a0 c0       	rjmp	.+320    	; 0x1724 <main+0x3b8>
			if (sz < 1024 || (sz & (al - 1))) return 0;	/* Check size */
    15e4:	c1 14       	cp	r12, r1
    15e6:	84 e0       	ldi	r24, 0x04	; 4
    15e8:	d8 06       	cpc	r13, r24
    15ea:	e1 04       	cpc	r14, r1
    15ec:	f1 04       	cpc	r15, r1
    15ee:	08 f4       	brcc	.+2      	; 0x15f2 <main+0x286>
    15f0:	99 c0       	rjmp	.+306    	; 0x1724 <main+0x3b8>
    15f2:	8c 2f       	mov	r24, r28
    15f4:	90 e0       	ldi	r25, 0x00	; 0
    15f6:	01 97       	sbiw	r24, 0x01	; 1
    15f8:	aa 27       	eor	r26, r26
    15fa:	97 fd       	sbrc	r25, 7
    15fc:	a0 95       	com	r26
    15fe:	ba 2f       	mov	r27, r26
    1600:	ac 01       	movw	r20, r24
    1602:	bd 01       	movw	r22, r26
    1604:	4c 21       	and	r20, r12
    1606:	5d 21       	and	r21, r13
    1608:	6e 21       	and	r22, r14
    160a:	7f 21       	and	r23, r15
    160c:	45 2b       	or	r20, r21
    160e:	46 2b       	or	r20, r22
    1610:	47 2b       	or	r20, r23
    1612:	09 f0       	breq	.+2      	; 0x1616 <main+0x2aa>
    1614:	87 c0       	rjmp	.+270    	; 0x1724 <main+0x3b8>
			if (Fs.fptr & (al - 1)) return 0;			/* Check word alignment */
    1616:	40 91 af 01 	lds	r20, 0x01AF	; 0x8001af <Fs+0x16>
    161a:	50 91 b0 01 	lds	r21, 0x01B0	; 0x8001b0 <Fs+0x17>
    161e:	60 91 b1 01 	lds	r22, 0x01B1	; 0x8001b1 <Fs+0x18>
    1622:	70 91 b2 01 	lds	r23, 0x01B2	; 0x8001b2 <Fs+0x19>
    1626:	84 23       	and	r24, r20
    1628:	95 23       	and	r25, r21
    162a:	a6 23       	and	r26, r22
    162c:	b7 23       	and	r27, r23
    162e:	89 2b       	or	r24, r25
    1630:	8a 2b       	or	r24, r26
    1632:	8b 2b       	or	r24, r27
    1634:	09 f0       	breq	.+2      	; 0x1638 <main+0x2cc>
    1636:	76 c0       	rjmp	.+236    	; 0x1724 <main+0x3b8>
		FifoCt = 0; FifoRi = 0; FifoWi = 0;	/* Reset audio FIFO */
    1638:	10 92 98 01 	sts	0x0198, r1	; 0x800198 <FifoCt>
    163c:	10 92 6f 00 	sts	0x006F, r1	; 0x80006f <FifoRi>
    1640:	10 92 6e 00 	sts	0x006E, r1	; 0x80006e <FifoWi>
		if (!TCCR1) {				/* Enable audio out if not enabled */
    1644:	80 b7       	in	r24, 0x30	; 48
    1646:	88 23       	and	r24, r24
    1648:	79 f1       	breq	.+94     	; 0x16a8 <main+0x33c>
		pf_read(0, 512 - (Fs.fptr % 512), &rb);	/* Snip sector unaligned part */
    164a:	80 91 af 01 	lds	r24, 0x01AF	; 0x8001af <Fs+0x16>
    164e:	90 91 b0 01 	lds	r25, 0x01B0	; 0x8001b0 <Fs+0x17>
    1652:	91 70       	andi	r25, 0x01	; 1
    1654:	60 e0       	ldi	r22, 0x00	; 0
    1656:	72 e0       	ldi	r23, 0x02	; 2
    1658:	68 1b       	sub	r22, r24
    165a:	79 0b       	sbc	r23, r25
    165c:	46 e8       	ldi	r20, 0x86	; 134
    165e:	50 e0       	ldi	r21, 0x00	; 0
    1660:	80 e0       	ldi	r24, 0x00	; 0
    1662:	90 e0       	ldi	r25, 0x00	; 0
    1664:	c0 da       	rcall	.-2688   	; 0xbe6 <pf_read>
		sz -= rb;
    1666:	80 91 86 00 	lds	r24, 0x0086	; 0x800086 <rb>
    166a:	90 91 87 00 	lds	r25, 0x0087	; 0x800087 <rb+0x1>
    166e:	c8 1a       	sub	r12, r24
    1670:	d9 0a       	sbc	r13, r25
    1672:	e1 08       	sbc	r14, r1
    1674:	f1 08       	sbc	r15, r1
		sw = 1;	/* Button status flag */
    1676:	c1 e0       	ldi	r28, 0x01	; 1
    1678:	41 c0       	rjmp	.+130    	; 0x16fc <main+0x390>
			if (sz & 1) sz++;				/* Align chunk size */
    167a:	c0 fe       	sbrs	r12, 0
    167c:	05 c0       	rjmp	.+10     	; 0x1688 <main+0x31c>
    167e:	2f ef       	ldi	r18, 0xFF	; 255
    1680:	c2 1a       	sub	r12, r18
    1682:	d2 0a       	sbc	r13, r18
    1684:	e2 0a       	sbc	r14, r18
    1686:	f2 0a       	sbc	r15, r18
			pf_lseek(Fs.fptr + sz);			/* Skip this chunk */
    1688:	80 91 af 01 	lds	r24, 0x01AF	; 0x8001af <Fs+0x16>
    168c:	90 91 b0 01 	lds	r25, 0x01B0	; 0x8001b0 <Fs+0x17>
    1690:	a0 91 b1 01 	lds	r26, 0x01B1	; 0x8001b1 <Fs+0x18>
    1694:	b0 91 b2 01 	lds	r27, 0x01B2	; 0x8001b2 <Fs+0x19>
    1698:	bc 01       	movw	r22, r24
    169a:	cd 01       	movw	r24, r26
    169c:	6c 0d       	add	r22, r12
    169e:	7d 1d       	adc	r23, r13
    16a0:	8e 1d       	adc	r24, r14
    16a2:	9f 1d       	adc	r25, r15
    16a4:	5b db       	rcall	.-2378   	; 0xd5c <pf_lseek>
    16a6:	fc ce       	rjmp	.-520    	; 0x14a0 <main+0x134>
			PLLCSR = 0b00000110;	/* Select PLL clock for TC1.ck */
    16a8:	86 e0       	ldi	r24, 0x06	; 6
    16aa:	87 bd       	out	0x27, r24	; 39
			GTCCR =  0b01100000;	/* Enable OC1B as PWM */
    16ac:	80 e6       	ldi	r24, 0x60	; 96
    16ae:	8c bd       	out	0x2c, r24	; 44
			TCCR1 = MODE ? 0b01100001 : 0b00000001;	/* Start TC1 and enable OC1A as PWM if needed */
    16b0:	81 e0       	ldi	r24, 0x01	; 1
    16b2:	80 bf       	out	0x30, r24	; 48
			TCCR0A = 0b00000010;	/* Statr TC0 as interval timer at 2MHz */
    16b4:	82 e0       	ldi	r24, 0x02	; 2
    16b6:	8a bd       	out	0x2a, r24	; 42
			TCCR0B = 0b00000010;
    16b8:	83 bf       	out	0x33, r24	; 51
			TIMSK = _BV(OCIE0A);
    16ba:	80 e1       	ldi	r24, 0x10	; 16
    16bc:	89 bf       	out	0x39, r24	; 57
    16be:	c0 e0       	ldi	r28, 0x00	; 0
		v += d;
    16c0:	cf 5f       	subi	r28, 0xFF	; 255
		OCR1A = v; OCR1B = v;
    16c2:	ce bd       	out	0x2e, r28	; 46
    16c4:	cb bd       	out	0x2b, r28	; 43
		delay_us(100);
    16c6:	84 e6       	ldi	r24, 0x64	; 100
    16c8:	90 e0       	ldi	r25, 0x00	; 0
    16ca:	d1 d4       	rcall	.+2466   	; 0x206e <__TEXT_REGION_LENGTH__+0x6e>
	} while (--n);
    16cc:	c0 38       	cpi	r28, 0x80	; 128
    16ce:	c1 f7       	brne	.-16     	; 0x16c0 <main+0x354>
    16d0:	bc cf       	rjmp	.-136    	; 0x164a <main+0x2de>
			btr = (sz > 1024) ? 1024 : (WORD)sz;/* A chunk of audio data */
    16d2:	60 e0       	ldi	r22, 0x00	; 0
    16d4:	74 e0       	ldi	r23, 0x04	; 4
			res = pf_read(0, btr, &rb);	/* Forward the data into audio FIFO */
    16d6:	46 e8       	ldi	r20, 0x86	; 134
    16d8:	50 e0       	ldi	r21, 0x00	; 0
    16da:	80 e0       	ldi	r24, 0x00	; 0
    16dc:	90 e0       	ldi	r25, 0x00	; 0
    16de:	83 da       	rcall	.-2810   	; 0xbe6 <pf_read>
			if (rb != 1024) break;		/* Break on error or end of data */
    16e0:	80 91 86 00 	lds	r24, 0x0086	; 0x800086 <rb>
    16e4:	90 91 87 00 	lds	r25, 0x0087	; 0x800087 <rb+0x1>
    16e8:	81 15       	cp	r24, r1
    16ea:	94 40       	sbci	r25, 0x04	; 4
    16ec:	a1 f4       	brne	.+40     	; 0x1716 <main+0x3aa>
			sz -= rb;					/* Decrease data counter */
    16ee:	84 e0       	ldi	r24, 0x04	; 4
    16f0:	d8 1a       	sub	r13, r24
    16f2:	e1 08       	sbc	r14, r1
    16f4:	f1 08       	sbc	r15, r1
			sw <<= 1;					/* Break on button down */
    16f6:	cc 0f       	add	r28, r28
		} while ((PINB & 1) || ++sw != 1);
    16f8:	b0 9b       	sbis	0x16, 0	; 22
    16fa:	0a c0       	rjmp	.+20     	; 0x1710 <main+0x3a4>
			wdt_reset();
    16fc:	a8 95       	wdr
			btr = (sz > 1024) ? 1024 : (WORD)sz;/* A chunk of audio data */
    16fe:	31 e0       	ldi	r19, 0x01	; 1
    1700:	c3 16       	cp	r12, r19
    1702:	34 e0       	ldi	r19, 0x04	; 4
    1704:	d3 06       	cpc	r13, r19
    1706:	e1 04       	cpc	r14, r1
    1708:	f1 04       	cpc	r15, r1
    170a:	18 f7       	brcc	.-58     	; 0x16d2 <main+0x366>
    170c:	b6 01       	movw	r22, r12
    170e:	e3 cf       	rjmp	.-58     	; 0x16d6 <main+0x36a>
		} while ((PINB & 1) || ++sw != 1);
    1710:	cf 5f       	subi	r28, 0xFF	; 255
    1712:	c1 30       	cpi	r28, 0x01	; 1
    1714:	99 f7       	brne	.-26     	; 0x16fc <main+0x390>
	while (FifoCt) ;			/* Wait for audio FIFO empty */
    1716:	80 91 98 01 	lds	r24, 0x0198	; 0x800198 <FifoCt>
    171a:	81 11       	cpse	r24, r1
    171c:	fc cf       	rjmp	.-8      	; 0x1716 <main+0x3aa>
	OCR1A = 128; OCR1B = 128;	/* Return output to center level */
    171e:	80 e8       	ldi	r24, 0x80	; 128
    1720:	8e bd       	out	0x2e, r24	; 46
    1722:	8b bd       	out	0x2b, r24	; 43
                        res = play(dir, Fno.fname);		/* Play file */
                        PORTB |= (1 << 5);      /* Set PB5 to HIGH, which will cause the MAX16054 to power off our circuit */
    1724:	c5 9a       	sbi	0x18, 5	; 24
                        while(1) wdt_reset();   /* We should never get here */
    1726:	a8 95       	wdr
    1728:	fe cf       	rjmp	.-4      	; 0x1726 <main+0x3ba>
		v += d;
    172a:	c1 50       	subi	r28, 0x01	; 1
		OCR1A = v; OCR1B = v;
    172c:	ce bd       	out	0x2e, r28	; 46
    172e:	cb bd       	out	0x2b, r28	; 43
		delay_us(100);
    1730:	84 e6       	ldi	r24, 0x64	; 100
    1732:	90 e0       	ldi	r25, 0x00	; 0
    1734:	9c d4       	rcall	.+2360   	; 0x206e <__TEXT_REGION_LENGTH__+0x6e>
	} while (--n);
    1736:	c1 11       	cpse	r28, r1
    1738:	f8 cf       	rjmp	.-16     	; 0x172a <main+0x3be>
		TCCR1 = 0; GTCCR = 0;
    173a:	10 be       	out	0x30, r1	; 48
    173c:	1c bc       	out	0x2c, r1	; 44
	WDTCR = _BV(WDE) | _BV(WDIE) | 0b101;	/* Set WDT to interrupt mode in timeout of 0.5s */
    173e:	01 bd       	out	0x21, r16	; 33
	set_sleep_mode(SLEEP_MODE_PWR_DOWN);	/* Enter power down mode */
    1740:	85 b7       	in	r24, 0x35	; 53
    1742:	87 7e       	andi	r24, 0xE7	; 231
    1744:	80 61       	ori	r24, 0x10	; 16
    1746:	85 bf       	out	0x35, r24	; 53
	sleep_mode();
    1748:	85 b7       	in	r24, 0x35	; 53
    174a:	80 62       	ori	r24, 0x20	; 32
    174c:	85 bf       	out	0x35, r24	; 53
    174e:	88 95       	sleep
    1750:	85 b7       	in	r24, 0x35	; 53
    1752:	8f 7d       	andi	r24, 0xDF	; 223
    1754:	85 bf       	out	0x35, r24	; 53
	wdt_reset();
    1756:	a8 95       	wdr
	WDTCR = _BV(WDE) | 0b110;				/* Set WDT to reset mode in timeout of 1s */
    1758:	11 bd       	out	0x21, r17	; 33
    175a:	18 ce       	rjmp	.-976    	; 0x138c <main+0x20>

0000175c <__udivmodsi4>:
    175c:	a1 e2       	ldi	r26, 0x21	; 33
    175e:	1a 2e       	mov	r1, r26
    1760:	aa 1b       	sub	r26, r26
    1762:	bb 1b       	sub	r27, r27
    1764:	fd 01       	movw	r30, r26
    1766:	0d c0       	rjmp	.+26     	; 0x1782 <__udivmodsi4_ep>

00001768 <__udivmodsi4_loop>:
    1768:	aa 1f       	adc	r26, r26
    176a:	bb 1f       	adc	r27, r27
    176c:	ee 1f       	adc	r30, r30
    176e:	ff 1f       	adc	r31, r31
    1770:	a2 17       	cp	r26, r18
    1772:	b3 07       	cpc	r27, r19
    1774:	e4 07       	cpc	r30, r20
    1776:	f5 07       	cpc	r31, r21
    1778:	20 f0       	brcs	.+8      	; 0x1782 <__udivmodsi4_ep>
    177a:	a2 1b       	sub	r26, r18
    177c:	b3 0b       	sbc	r27, r19
    177e:	e4 0b       	sbc	r30, r20
    1780:	f5 0b       	sbc	r31, r21

00001782 <__udivmodsi4_ep>:
    1782:	66 1f       	adc	r22, r22
    1784:	77 1f       	adc	r23, r23
    1786:	88 1f       	adc	r24, r24
    1788:	99 1f       	adc	r25, r25
    178a:	1a 94       	dec	r1
    178c:	69 f7       	brne	.-38     	; 0x1768 <__udivmodsi4_loop>
    178e:	60 95       	com	r22
    1790:	70 95       	com	r23
    1792:	80 95       	com	r24
    1794:	90 95       	com	r25
    1796:	9b 01       	movw	r18, r22
    1798:	ac 01       	movw	r20, r24
    179a:	bd 01       	movw	r22, r26
    179c:	cf 01       	movw	r24, r30
    179e:	08 95       	ret

000017a0 <__mulsidi3>:
    17a0:	68 94       	set
    17a2:	00 10       	cpse	r0, r0

000017a4 <__umulsidi3>:
    17a4:	e8 94       	clt
    17a6:	a0 e0       	ldi	r26, 0x00	; 0
    17a8:	b0 e0       	ldi	r27, 0x00	; 0
    17aa:	e8 ed       	ldi	r30, 0xD8	; 216
    17ac:	fb e0       	ldi	r31, 0x0B	; 11
    17ae:	1d c0       	rjmp	.+58     	; 0x17ea <__prologue_saves__+0x10>
    17b0:	ef ef       	ldi	r30, 0xFF	; 255
    17b2:	e7 f9       	bld	r30, 7
    17b4:	59 01       	movw	r10, r18
    17b6:	6a 01       	movw	r12, r20
    17b8:	5e 23       	and	r21, r30
    17ba:	55 0f       	add	r21, r21
    17bc:	ee 08       	sbc	r14, r14
    17be:	fe 2c       	mov	r15, r14
    17c0:	87 01       	movw	r16, r14
    17c2:	9b 01       	movw	r18, r22
    17c4:	ac 01       	movw	r20, r24
    17c6:	9e 23       	and	r25, r30
    17c8:	99 0f       	add	r25, r25
    17ca:	66 0b       	sbc	r22, r22
    17cc:	76 2f       	mov	r23, r22
    17ce:	cb 01       	movw	r24, r22
    17d0:	3b d0       	rcall	.+118    	; 0x1848 <__muldi3>
    17d2:	cd b7       	in	r28, 0x3d	; 61
    17d4:	de b7       	in	r29, 0x3e	; 62
    17d6:	ea e0       	ldi	r30, 0x0A	; 10
    17d8:	24 c0       	rjmp	.+72     	; 0x1822 <__epilogue_restores__+0x10>

000017da <__prologue_saves__>:
    17da:	2f 92       	push	r2
    17dc:	3f 92       	push	r3
    17de:	4f 92       	push	r4
    17e0:	5f 92       	push	r5
    17e2:	6f 92       	push	r6
    17e4:	7f 92       	push	r7
    17e6:	8f 92       	push	r8
    17e8:	9f 92       	push	r9
    17ea:	af 92       	push	r10
    17ec:	bf 92       	push	r11
    17ee:	cf 92       	push	r12
    17f0:	df 92       	push	r13
    17f2:	ef 92       	push	r14
    17f4:	ff 92       	push	r15
    17f6:	0f 93       	push	r16
    17f8:	1f 93       	push	r17
    17fa:	cf 93       	push	r28
    17fc:	df 93       	push	r29
    17fe:	cd b7       	in	r28, 0x3d	; 61
    1800:	de b7       	in	r29, 0x3e	; 62
    1802:	ca 1b       	sub	r28, r26
    1804:	db 0b       	sbc	r29, r27
    1806:	0f b6       	in	r0, 0x3f	; 63
    1808:	f8 94       	cli
    180a:	de bf       	out	0x3e, r29	; 62
    180c:	0f be       	out	0x3f, r0	; 63
    180e:	cd bf       	out	0x3d, r28	; 61
    1810:	09 94       	ijmp

00001812 <__epilogue_restores__>:
    1812:	2a 88       	ldd	r2, Y+18	; 0x12
    1814:	39 88       	ldd	r3, Y+17	; 0x11
    1816:	48 88       	ldd	r4, Y+16	; 0x10
    1818:	5f 84       	ldd	r5, Y+15	; 0x0f
    181a:	6e 84       	ldd	r6, Y+14	; 0x0e
    181c:	7d 84       	ldd	r7, Y+13	; 0x0d
    181e:	8c 84       	ldd	r8, Y+12	; 0x0c
    1820:	9b 84       	ldd	r9, Y+11	; 0x0b
    1822:	aa 84       	ldd	r10, Y+10	; 0x0a
    1824:	b9 84       	ldd	r11, Y+9	; 0x09
    1826:	c8 84       	ldd	r12, Y+8	; 0x08
    1828:	df 80       	ldd	r13, Y+7	; 0x07
    182a:	ee 80       	ldd	r14, Y+6	; 0x06
    182c:	fd 80       	ldd	r15, Y+5	; 0x05
    182e:	0c 81       	ldd	r16, Y+4	; 0x04
    1830:	1b 81       	ldd	r17, Y+3	; 0x03
    1832:	aa 81       	ldd	r26, Y+2	; 0x02
    1834:	b9 81       	ldd	r27, Y+1	; 0x01
    1836:	ce 0f       	add	r28, r30
    1838:	d1 1d       	adc	r29, r1
    183a:	0f b6       	in	r0, 0x3f	; 63
    183c:	f8 94       	cli
    183e:	de bf       	out	0x3e, r29	; 62
    1840:	0f be       	out	0x3f, r0	; 63
    1842:	cd bf       	out	0x3d, r28	; 61
    1844:	ed 01       	movw	r28, r26
    1846:	08 95       	ret

00001848 <__muldi3>:
    1848:	df 93       	push	r29
    184a:	cf 93       	push	r28
    184c:	9f 92       	push	r9
    184e:	a0 e4       	ldi	r26, 0x40	; 64
    1850:	9a 2e       	mov	r9, r26
    1852:	00 24       	eor	r0, r0
    1854:	d0 01       	movw	r26, r0
    1856:	e0 01       	movw	r28, r0
    1858:	f0 01       	movw	r30, r0
    185a:	16 95       	lsr	r17
    185c:	07 95       	ror	r16
    185e:	f7 94       	ror	r15
    1860:	e7 94       	ror	r14
    1862:	d7 94       	ror	r13
    1864:	c7 94       	ror	r12
    1866:	b7 94       	ror	r11
    1868:	a7 94       	ror	r10
    186a:	48 f4       	brcc	.+18     	; 0x187e <__muldi3+0x36>
    186c:	10 68       	ori	r17, 0x80	; 128
    186e:	a2 0f       	add	r26, r18
    1870:	b3 1f       	adc	r27, r19
    1872:	c4 1f       	adc	r28, r20
    1874:	d5 1f       	adc	r29, r21
    1876:	e6 1f       	adc	r30, r22
    1878:	f7 1f       	adc	r31, r23
    187a:	08 1e       	adc	r0, r24
    187c:	19 1e       	adc	r1, r25
    187e:	22 0f       	add	r18, r18
    1880:	33 1f       	adc	r19, r19
    1882:	44 1f       	adc	r20, r20
    1884:	55 1f       	adc	r21, r21
    1886:	66 1f       	adc	r22, r22
    1888:	77 1f       	adc	r23, r23
    188a:	88 1f       	adc	r24, r24
    188c:	99 1f       	adc	r25, r25
    188e:	9a 94       	dec	r9
    1890:	21 f7       	brne	.-56     	; 0x185a <__muldi3+0x12>
    1892:	9d 01       	movw	r18, r26
    1894:	ae 01       	movw	r20, r28
    1896:	bf 01       	movw	r22, r30
    1898:	c0 01       	movw	r24, r0
    189a:	11 24       	eor	r1, r1
    189c:	9f 90       	pop	r9
    189e:	cf 91       	pop	r28
    18a0:	df 91       	pop	r29
    18a2:	08 95       	ret

000018a4 <strstr>:
    18a4:	fb 01       	movw	r30, r22
    18a6:	51 91       	ld	r21, Z+
    18a8:	55 23       	and	r21, r21
    18aa:	a9 f0       	breq	.+42     	; 0x18d6 <strstr+0x32>
    18ac:	bf 01       	movw	r22, r30
    18ae:	dc 01       	movw	r26, r24
    18b0:	4d 91       	ld	r20, X+
    18b2:	45 17       	cp	r20, r21
    18b4:	41 11       	cpse	r20, r1
    18b6:	e1 f7       	brne	.-8      	; 0x18b0 <strstr+0xc>
    18b8:	59 f4       	brne	.+22     	; 0x18d0 <strstr+0x2c>
    18ba:	cd 01       	movw	r24, r26
    18bc:	01 90       	ld	r0, Z+
    18be:	00 20       	and	r0, r0
    18c0:	49 f0       	breq	.+18     	; 0x18d4 <strstr+0x30>
    18c2:	4d 91       	ld	r20, X+
    18c4:	40 15       	cp	r20, r0
    18c6:	41 11       	cpse	r20, r1
    18c8:	c9 f3       	breq	.-14     	; 0x18bc <strstr+0x18>
    18ca:	fb 01       	movw	r30, r22
    18cc:	41 11       	cpse	r20, r1
    18ce:	ef cf       	rjmp	.-34     	; 0x18ae <strstr+0xa>
    18d0:	81 e0       	ldi	r24, 0x01	; 1
    18d2:	90 e0       	ldi	r25, 0x00	; 0
    18d4:	01 97       	sbiw	r24, 0x01	; 1
    18d6:	08 95       	ret

000018d8 <_exit>:
    18d8:	f8 94       	cli

000018da <__stop_program>:
    18da:	ff cf       	rjmp	.-2      	; 0x18da <__stop_program>
